   1              		.section .mdebug.abi32
   2              		.previous
   3              		.gnu_attribute 4, 3
   4              		.abicalls
  12              	$Ltext0:
  13              		.align	2
  14              		.globl	MorseBoxInit
  15              	$LFB0 = .
  16              		.file 1 "ui/MorseBox.c"
   0:ui/MorseBox.c **** #include "MorseBox.h"
   1:ui/MorseBox.c **** 
   2:ui/MorseBox.c **** void MorseBoxInit(MorseBox *mb, int row) {
  17              		.loc 1 3 0
  18              		.set	nomips16
  19              		.ent	MorseBoxInit
  21              	MorseBoxInit:
  22              		.frame	$fp,8,$31		# vars= 0, regs= 1/0, args= 0, gp= 0
  23              		.mask	0x40000000,-4
  24              		.fmask	0x00000000,0
  25              		.set	noreorder
  26              		.set	nomacro
  27              		
  28 0000 F8FFBD27 		addiu	$sp,$sp,-8
  29              	$LCFI0:
  30 0004 0400BEAF 		sw	$fp,4($sp)
  31              	$LCFI1:
  32 0008 21F0A003 		move	$fp,$sp
  33              	$LCFI2:
  34 000c 00001C3C 		lui	$28,%hi(__gnu_local_gp)
  35 0010 00009C27 		addiu	$28,$28,%lo(__gnu_local_gp)
  36 0014 0800C4AF 		sw	$4,8($fp)
  37 0018 0C00C5AF 		sw	$5,12($fp)
   3:ui/MorseBox.c ****   mb->buffer[0] = 0x0;
  38              		.loc 1 4 0
  39 001c 0800C28F 		lw	$2,8($fp)
  40 0020 00000000 		nop
  41 0024 000040A0 		sb	$0,0($2)
   4:ui/MorseBox.c ****   mb->bufferPos = 0;
  42              		.loc 1 5 0
  43 0028 0800C28F 		lw	$2,8($fp)
  44 002c 00000000 		nop
  45 0030 280040AC 		sw	$0,40($2)
   5:ui/MorseBox.c ****   mb->p = codetree;
  46              		.loc 1 6 0
  47 0034 0800C28F 		lw	$2,8($fp)
  48 0038 0000838F 		lw	$3,%got(codetree)($28)
  49 003c 00000000 		nop
  50 0040 2C0043AC 		sw	$3,44($2)
   6:ui/MorseBox.c ****   mb->pLen = 63;
  51              		.loc 1 7 0
  52 0044 0800C28F 		lw	$2,8($fp)
  53 0048 3F000324 		li	$3,63			# 0x3f
  54 004c 300043AC 		sw	$3,48($2)
   7:ui/MorseBox.c ****   mb->row = row;
  55              		.loc 1 8 0
  56 0050 0C00C28F 		lw	$2,12($fp)
  57 0054 00000000 		nop
  58 0058 001E0200 		sll	$3,$2,24
  59 005c 031E0300 		sra	$3,$3,24
  60 0060 0800C28F 		lw	$2,8($fp)
  61 0064 00000000 		nop
  62 0068 340043A0 		sb	$3,52($2)
   8:ui/MorseBox.c ****   mb->escState = 0;
  63              		.loc 1 9 0
  64 006c 0800C28F 		lw	$2,8($fp)
  65 0070 00000000 		nop
  66 0074 350040A0 		sb	$0,53($2)
   9:ui/MorseBox.c ****   mb->prompt[0] = ' ';
  67              		.loc 1 10 0
  68 0078 0800C28F 		lw	$2,8($fp)
  69 007c 20000324 		li	$3,32			# 0x20
  70 0080 360043A0 		sb	$3,54($2)
  10:ui/MorseBox.c ****   mb->prompt[1] = '$';
  71              		.loc 1 11 0
  72 0084 0800C28F 		lw	$2,8($fp)
  73 0088 24000324 		li	$3,36			# 0x24
  74 008c 370043A0 		sb	$3,55($2)
  11:ui/MorseBox.c **** }
  75              		.loc 1 12 0
  76 0090 21E8C003 		move	$sp,$fp
  77 0094 0400BE8F 		lw	$fp,4($sp)
  78 0098 0800BD27 		addiu	$sp,$sp,8
  79 009c 0800E003 		j	$31
  80 00a0 00000000 		nop
  81              	
  82              		.set	macro
  83              		.set	reorder
  84              		.end	MorseBoxInit
  85              	$LFE0:
  87              		.rdata
  88              		.align	2
  89              	$LC0:
  90 0000 70726F6D 		.ascii	"prompt1 && prompt2\000"
  90      70743120 
  90      26262070 
  90      726F6D70 
  90      743200
  91 0013 00       		.align	2
  92              	$LC1:
  93 0014 75692F4D 		.ascii	"ui/MorseBox.c\000"
  93      6F727365 
  93      426F782E 
  93      6300
  94              		.text
  95              		.align	2
  96              		.globl	MorseBoxSetPrompt
  97              	$LFB1 = .
  12:ui/MorseBox.c **** 
  13:ui/MorseBox.c **** void MorseBoxSetPrompt(MorseBox *mb, char prompt1, char prompt2) {
  98              		.loc 1 14 0
  99              		.set	nomips16
 100              		.ent	MorseBoxSetPrompt
 102              	MorseBoxSetPrompt:
 103              		.frame	$fp,32,$31		# vars= 0, regs= 2/0, args= 16, gp= 8
 104              		.mask	0xc0000000,-4
 105              		.fmask	0x00000000,0
 106              		.set	noreorder
 107              		.set	nomacro
 108              		
 109 00a4 E0FFBD27 		addiu	$sp,$sp,-32
 110              	$LCFI3:
 111 00a8 1C00BFAF 		sw	$31,28($sp)
 112              	$LCFI4:
 113 00ac 1800BEAF 		sw	$fp,24($sp)
 114              	$LCFI5:
 115 00b0 21F0A003 		move	$fp,$sp
 116              	$LCFI6:
 117 00b4 00001C3C 		lui	$28,%hi(__gnu_local_gp)
 118 00b8 00009C27 		addiu	$28,$28,%lo(__gnu_local_gp)
 119 00bc 1000BCAF 		.cprestore	16
 120 00c0 2000C4AF 		sw	$4,32($fp)
 121 00c4 2118A000 		move	$3,$5
 122 00c8 2110C000 		move	$2,$6
 123 00cc 2400C3A3 		sb	$3,36($fp)
 124 00d0 2800C2A3 		sb	$2,40($fp)
  14:ui/MorseBox.c ****   assert(prompt1 && prompt2);
 125              		.loc 1 15 0
 126 00d4 2400C283 		lb	$2,36($fp)
 127 00d8 00000000 		nop
 128 00dc 05004010 		beq	$2,$0,$L4
 129 00e0 00000000 		nop
 130              	
 131 00e4 2800C283 		lb	$2,40($fp)
 132 00e8 00000000 		nop
 133 00ec 0D004014 		bne	$2,$0,$L5
 134 00f0 00000000 		nop
 135              	
 136              	$L4:
 137 00f4 0000023C 		lui	$2,%hi($LC0)
 138 00f8 00004424 		addiu	$4,$2,%lo($LC0)
 139 00fc 0000023C 		lui	$2,%hi($LC1)
 140 0100 14004524 		addiu	$5,$2,%lo($LC1)
 141 0104 0F000624 		li	$6,15			# 0xf
 142 0108 0000023C 		lui	$2,%hi(__PRETTY_FUNCTION__.1763)
 143 010c 38004724 		addiu	$7,$2,%lo(__PRETTY_FUNCTION__.1763)
 144 0110 0000828F 		lw	$2,%call16(__assert_fail)($28)
 145 0114 00000000 		nop
 146 0118 21C84000 		move	$25,$2
 147 011c 09F82003 		jalr	$25
 148 0120 00000000 		nop
 149              	
 150              	$L5:
  15:ui/MorseBox.c ****   mb->prompt[0] = prompt1;
 151              		.loc 1 16 0
 152 0124 2000C28F 		lw	$2,32($fp)
 153 0128 2400C393 		lbu	$3,36($fp)
 154 012c 00000000 		nop
 155 0130 360043A0 		sb	$3,54($2)
  16:ui/MorseBox.c ****   mb->prompt[1] = prompt2;
 156              		.loc 1 17 0
 157 0134 2000C28F 		lw	$2,32($fp)
 158 0138 2800C393 		lbu	$3,40($fp)
 159 013c 00000000 		nop
 160 0140 370043A0 		sb	$3,55($2)
  17:ui/MorseBox.c **** }
 161              		.loc 1 18 0
 162 0144 21E8C003 		move	$sp,$fp
 163 0148 1C00BF8F 		lw	$31,28($sp)
 164 014c 1800BE8F 		lw	$fp,24($sp)
 165 0150 2000BD27 		addiu	$sp,$sp,32
 166 0154 0800E003 		j	$31
 167 0158 00000000 		nop
 168              	
 169              		.set	macro
 170              		.set	reorder
 171              		.end	MorseBoxSetPrompt
 172              	$LFE1:
 174              		.align	2
 175              		.globl	MorseBoxSetBuffer
 176              	$LFB2 = .
  18:ui/MorseBox.c **** 
  19:ui/MorseBox.c **** void MorseBoxSetBuffer(MorseBox *mb, char *data) {
 177              		.loc 1 20 0
 178              		.set	nomips16
 179              		.ent	MorseBoxSetBuffer
 181              	MorseBoxSetBuffer:
 182              		.frame	$fp,8,$31		# vars= 0, regs= 1/0, args= 0, gp= 0
 183              		.mask	0x40000000,-4
 184              		.fmask	0x00000000,0
 185              		.set	noreorder
 186              		.set	nomacro
 187              		
 188 015c F8FFBD27 		addiu	$sp,$sp,-8
 189              	$LCFI7:
 190 0160 0400BEAF 		sw	$fp,4($sp)
 191              	$LCFI8:
 192 0164 21F0A003 		move	$fp,$sp
 193              	$LCFI9:
 194 0168 0800C4AF 		sw	$4,8($fp)
 195 016c 0C00C5AF 		sw	$5,12($fp)
  20:ui/MorseBox.c ****   mb->bufferPos = 0;
 196              		.loc 1 21 0
 197 0170 0800C28F 		lw	$2,8($fp)
 198 0174 00000000 		nop
 199 0178 280040AC 		sw	$0,40($2)
  21:ui/MorseBox.c ****   for (; *data; ++data) {
 200              		.loc 1 22 0
 201 017c 1E000010 		b	$L8
 202 0180 00000000 		nop
 203              	
 204              	$L11:
  22:ui/MorseBox.c ****     if (mb->bufferPos >= MORSEBOX_MAX -1)
 205              		.loc 1 23 0
 206 0184 0800C28F 		lw	$2,8($fp)
 207 0188 00000000 		nop
 208 018c 2800428C 		lw	$2,40($2)
 209 0190 00000000 		nop
 210 0194 27004228 		slt	$2,$2,39
 211 0198 1F004010 		beq	$2,$0,$L13
 212 019c 00000000 		nop
 213              	
 214              	$L9:
  23:ui/MorseBox.c ****       break;
  24:ui/MorseBox.c ****     mb->buffer[mb->bufferPos] = *data;
 215              		.loc 1 25 0
 216 01a0 0800C28F 		lw	$2,8($fp)
 217 01a4 00000000 		nop
 218 01a8 2800428C 		lw	$2,40($2)
 219 01ac 0C00C38F 		lw	$3,12($fp)
 220 01b0 00000000 		nop
 221 01b4 00006380 		lb	$3,0($3)
 222 01b8 0800C48F 		lw	$4,8($fp)
 223 01bc 00000000 		nop
 224 01c0 21108200 		addu	$2,$4,$2
 225 01c4 000043A0 		sb	$3,0($2)
  25:ui/MorseBox.c ****     ++mb->bufferPos;
 226              		.loc 1 26 0
 227 01c8 0800C28F 		lw	$2,8($fp)
 228 01cc 00000000 		nop
 229 01d0 2800428C 		lw	$2,40($2)
 230 01d4 00000000 		nop
 231 01d8 01004324 		addiu	$3,$2,1
 232 01dc 0800C28F 		lw	$2,8($fp)
 233 01e0 00000000 		nop
 234 01e4 280043AC 		sw	$3,40($2)
  22:ui/MorseBox.c ****     if (mb->bufferPos >= MORSEBOX_MAX -1)
 235              		.loc 1 22 0
 236 01e8 0C00C28F 		lw	$2,12($fp)
 237 01ec 00000000 		nop
 238 01f0 01004224 		addiu	$2,$2,1
 239 01f4 0C00C2AF 		sw	$2,12($fp)
 240              	$L8:
 241 01f8 0C00C28F 		lw	$2,12($fp)
 242 01fc 00000000 		nop
 243 0200 00004280 		lb	$2,0($2)
 244 0204 00000000 		nop
 245 0208 DEFF4014 		bne	$2,$0,$L11
 246 020c 00000000 		nop
 247              	
 248 0210 02000010 		b	$L10
 249 0214 00000000 		nop
 250              	
 251              	$L13:
  24:ui/MorseBox.c ****       break;
 252              		.loc 1 24 0
 253 0218 00000000 		nop
 254              	$L10:
  26:ui/MorseBox.c ****   }
  27:ui/MorseBox.c ****   mb->buffer[mb->bufferPos] = 0x0; // null terminate
 255              		.loc 1 28 0
 256 021c 0800C28F 		lw	$2,8($fp)
 257 0220 00000000 		nop
 258 0224 2800428C 		lw	$2,40($2)
 259 0228 0800C38F 		lw	$3,8($fp)
 260 022c 00000000 		nop
 261 0230 21106200 		addu	$2,$3,$2
 262 0234 000040A0 		sb	$0,0($2)
  28:ui/MorseBox.c **** }
 263              		.loc 1 29 0
 264 0238 21E8C003 		move	$sp,$fp
 265 023c 0400BE8F 		lw	$fp,4($sp)
 266 0240 0800BD27 		addiu	$sp,$sp,8
 267 0244 0800E003 		j	$31
 268 0248 00000000 		nop
 269              	
 270              		.set	macro
 271              		.set	reorder
 272              		.end	MorseBoxSetBuffer
 273              	$LFE2:
 275              		.align	2
 276              		.globl	MorseBoxGetBuffer
 277              	$LFB3 = .
  29:ui/MorseBox.c **** 
  30:ui/MorseBox.c **** inline char *MorseBoxGetBuffer(MorseBox *mb) {
 278              		.loc 1 31 0
 279              		.set	nomips16
 280              		.ent	MorseBoxGetBuffer
 282              	MorseBoxGetBuffer:
 283              		.frame	$fp,8,$31		# vars= 0, regs= 1/0, args= 0, gp= 0
 284              		.mask	0x40000000,-4
 285              		.fmask	0x00000000,0
 286              		.set	noreorder
 287              		.set	nomacro
 288              		
 289 024c F8FFBD27 		addiu	$sp,$sp,-8
 290              	$LCFI10:
 291 0250 0400BEAF 		sw	$fp,4($sp)
 292              	$LCFI11:
 293 0254 21F0A003 		move	$fp,$sp
 294              	$LCFI12:
 295 0258 0800C4AF 		sw	$4,8($fp)
  31:ui/MorseBox.c ****   return mb->buffer;
 296              		.loc 1 32 0
 297 025c 0800C28F 		lw	$2,8($fp)
  32:ui/MorseBox.c **** }
 298              		.loc 1 33 0
 299 0260 21E8C003 		move	$sp,$fp
 300 0264 0400BE8F 		lw	$fp,4($sp)
 301 0268 0800BD27 		addiu	$sp,$sp,8
 302 026c 0800E003 		j	$31
 303 0270 00000000 		nop
 304              	
 305              		.set	macro
 306              		.set	reorder
 307              		.end	MorseBoxGetBuffer
 308              	$LFE3:
 310              		.align	2
 311              		.globl	MorseBoxReset
 312              	$LFB4 = .
  33:ui/MorseBox.c **** 
  34:ui/MorseBox.c **** void MorseBoxReset(MorseBox *mb) {
 313              		.loc 1 35 0
 314              		.set	nomips16
 315              		.ent	MorseBoxReset
 317              	MorseBoxReset:
 318              		.frame	$fp,8,$31		# vars= 0, regs= 1/0, args= 0, gp= 0
 319              		.mask	0x40000000,-4
 320              		.fmask	0x00000000,0
 321              		.set	noreorder
 322              		.set	nomacro
 323              		
 324 0274 F8FFBD27 		addiu	$sp,$sp,-8
 325              	$LCFI13:
 326 0278 0400BEAF 		sw	$fp,4($sp)
 327              	$LCFI14:
 328 027c 21F0A003 		move	$fp,$sp
 329              	$LCFI15:
 330 0280 00001C3C 		lui	$28,%hi(__gnu_local_gp)
 331 0284 00009C27 		addiu	$28,$28,%lo(__gnu_local_gp)
 332 0288 0800C4AF 		sw	$4,8($fp)
  35:ui/MorseBox.c ****   mb->p = codetree;
 333              		.loc 1 36 0
 334 028c 0800C28F 		lw	$2,8($fp)
 335 0290 0000838F 		lw	$3,%got(codetree)($28)
 336 0294 00000000 		nop
 337 0298 2C0043AC 		sw	$3,44($2)
  36:ui/MorseBox.c ****   mb->pLen = 63;
 338              		.loc 1 37 0
 339 029c 0800C28F 		lw	$2,8($fp)
 340 02a0 3F000324 		li	$3,63			# 0x3f
 341 02a4 300043AC 		sw	$3,48($2)
  37:ui/MorseBox.c ****   mb->buffer[mb->bufferPos] = 0x0; // always null-terminate
 342              		.loc 1 38 0
 343 02a8 0800C28F 		lw	$2,8($fp)
 344 02ac 00000000 		nop
 345 02b0 2800428C 		lw	$2,40($2)
 346 02b4 0800C38F 		lw	$3,8($fp)
 347 02b8 00000000 		nop
 348 02bc 21106200 		addu	$2,$3,$2
 349 02c0 000040A0 		sb	$0,0($2)
  38:ui/MorseBox.c **** }
 350              		.loc 1 39 0
 351 02c4 21E8C003 		move	$sp,$fp
 352 02c8 0400BE8F 		lw	$fp,4($sp)
 353 02cc 0800BD27 		addiu	$sp,$sp,8
 354 02d0 0800E003 		j	$31
 355 02d4 00000000 		nop
 356              	
 357              		.set	macro
 358              		.set	reorder
 359              		.end	MorseBoxReset
 360              	$LFE4:
 362              		.align	2
 363              		.globl	MorseBoxPushEvent
 364              	$LFB5 = .
  39:ui/MorseBox.c **** 
  40:ui/MorseBox.c **** int MorseBoxPushEvent(MorseBox *mb, int r) {
 365              		.loc 1 41 0
 366              		.set	nomips16
 367              		.ent	MorseBoxPushEvent
 369              	MorseBoxPushEvent:
 370              		.frame	$fp,40,$31		# vars= 0, regs= 3/0, args= 16, gp= 8
 371              		.mask	0xc0010000,-4
 372              		.fmask	0x00000000,0
 373              		.set	noreorder
 374              		.set	nomacro
 375              		
 376 02d8 D8FFBD27 		addiu	$sp,$sp,-40
 377              	$LCFI16:
 378 02dc 2400BFAF 		sw	$31,36($sp)
 379              	$LCFI17:
 380 02e0 2000BEAF 		sw	$fp,32($sp)
 381              	$LCFI18:
 382 02e4 1C00B0AF 		sw	$16,28($sp)
 383              	$LCFI19:
 384 02e8 21F0A003 		move	$fp,$sp
 385              	$LCFI20:
 386 02ec 00001C3C 		lui	$28,%hi(__gnu_local_gp)
 387 02f0 00009C27 		addiu	$28,$28,%lo(__gnu_local_gp)
 388 02f4 1000BCAF 		.cprestore	16
 389 02f8 2800C4AF 		sw	$4,40($fp)
 390 02fc 2C00C5AF 		sw	$5,44($fp)
  41:ui/MorseBox.c ****   if (r == -1) {
 391              		.loc 1 42 0
 392 0300 2C00C38F 		lw	$3,44($fp)
 393 0304 FFFF0224 		li	$2,-1			# 0xffffffffffffffff
 394 0308 04006214 		bne	$3,$2,$L19
 395 030c 00000000 		nop
 396              	
  42:ui/MorseBox.c ****     return 0;
 397              		.loc 1 43 0
 398 0310 21100000 		move	$2,$0
 399 0314 D1000010 		b	$L20
 400 0318 00000000 		nop
 401              	
 402              	$L19:
  43:ui/MorseBox.c ****   } else if (r == '\b' || r == 127) {
 403              		.loc 1 44 0
 404 031c 2C00C38F 		lw	$3,44($fp)
 405 0320 08000224 		li	$2,8			# 0x8
 406 0324 05006210 		beq	$3,$2,$L21
 407 0328 00000000 		nop
 408              	
 409 032c 2C00C38F 		lw	$3,44($fp)
 410 0330 7F000224 		li	$2,127			# 0x7f
 411 0334 16006214 		bne	$3,$2,$L22
 412 0338 00000000 		nop
 413              	
 414              	$L21:
  44:ui/MorseBox.c ****     if (mb->bufferPos > 0) mb->bufferPos--;
 415              		.loc 1 45 0
 416 033c 2800C28F 		lw	$2,40($fp)
 417 0340 00000000 		nop
 418 0344 2800428C 		lw	$2,40($2)
 419 0348 00000000 		nop
 420 034c 09004018 		blez	$2,$L23
 421 0350 00000000 		nop
 422              	
 423 0354 2800C28F 		lw	$2,40($fp)
 424 0358 00000000 		nop
 425 035c 2800428C 		lw	$2,40($2)
 426 0360 00000000 		nop
 427 0364 FFFF4324 		addiu	$3,$2,-1
 428 0368 2800C28F 		lw	$2,40($fp)
 429 036c 00000000 		nop
 430 0370 280043AC 		sw	$3,40($2)
 431              	$L23:
  45:ui/MorseBox.c ****     MorseBoxReset(mb);
 432              		.loc 1 46 0
 433 0374 2800C48F 		lw	$4,40($fp)
 434              		.option	pic0
 435 0378 0000000C 		jal	MorseBoxReset
 436 037c 00000000 		nop
 437              	
 438              		.option	pic2
 439 0380 1000DC8F 		lw	$28,16($fp)
  46:ui/MorseBox.c ****     return 1;
 440              		.loc 1 47 0
 441 0384 01000224 		li	$2,1			# 0x1
 442 0388 B4000010 		b	$L20
 443 038c 00000000 		nop
 444              	
 445              	$L22:
  47:ui/MorseBox.c ****   } else if (r == UP_ARROW) {
 446              		.loc 1 48 0
 447 0390 2C00C38F 		lw	$3,44($fp)
 448 0394 00410224 		li	$2,16640			# 0x4100
 449 0398 62006214 		bne	$3,$2,$L24
 450 039c 00000000 		nop
 451              	
  48:ui/MorseBox.c ****     if (mb->bufferPos && mb->buffer[mb->bufferPos-1] == ' ') {
 452              		.loc 1 49 0
 453 03a0 2800C28F 		lw	$2,40($fp)
 454 03a4 00000000 		nop
 455 03a8 2800428C 		lw	$2,40($2)
 456 03ac 00000000 		nop
 457 03b0 27004010 		beq	$2,$0,$L25
 458 03b4 00000000 		nop
 459              	
 460 03b8 2800C28F 		lw	$2,40($fp)
 461 03bc 00000000 		nop
 462 03c0 2800428C 		lw	$2,40($2)
 463 03c4 00000000 		nop
 464 03c8 FFFF4224 		addiu	$2,$2,-1
 465 03cc 2800C38F 		lw	$3,40($fp)
 466 03d0 00000000 		nop
 467 03d4 21106200 		addu	$2,$3,$2
 468 03d8 00004380 		lb	$3,0($2)
 469 03dc 20000224 		li	$2,32			# 0x20
 470 03e0 1B006214 		bne	$3,$2,$L25
 471 03e4 00000000 		nop
 472              	
  49:ui/MorseBox.c ****       //Double space is a backspace!
  50:ui/MorseBox.c ****       if (mb->bufferPos == 1)
 473              		.loc 1 51 0
 474 03e8 2800C28F 		lw	$2,40($fp)
 475 03ec 00000000 		nop
 476 03f0 2800438C 		lw	$3,40($2)
 477 03f4 01000224 		li	$2,1			# 0x1
 478 03f8 06006214 		bne	$3,$2,$L26
 479 03fc 00000000 		nop
 480              	
  51:ui/MorseBox.c ****         mb->bufferPos = 0;
 481              		.loc 1 52 0
 482 0400 2800C28F 		lw	$2,40($fp)
 483 0404 00000000 		nop
 484 0408 280040AC 		sw	$0,40($2)
 485 040c 09000010 		b	$L27
 486 0410 00000000 		nop
 487              	
 488              	$L26:
  52:ui/MorseBox.c ****       else
  53:ui/MorseBox.c ****         mb->bufferPos -= 2;
 489              		.loc 1 54 0
 490 0414 2800C28F 		lw	$2,40($fp)
 491 0418 00000000 		nop
 492 041c 2800428C 		lw	$2,40($2)
 493 0420 00000000 		nop
 494 0424 FEFF4324 		addiu	$3,$2,-2
 495 0428 2800C28F 		lw	$2,40($fp)
 496 042c 00000000 		nop
 497 0430 280043AC 		sw	$3,40($2)
 498              	$L27:
  54:ui/MorseBox.c ****       MorseBoxReset(mb);
 499              		.loc 1 55 0
 500 0434 2800C48F 		lw	$4,40($fp)
 501              		.option	pic0
 502 0438 0000000C 		jal	MorseBoxReset
 503 043c 00000000 		nop
 504              	
 505              		.option	pic2
 506 0440 1000DC8F 		lw	$28,16($fp)
  55:ui/MorseBox.c ****       return 1;
 507              		.loc 1 56 0
 508 0444 01000224 		li	$2,1			# 0x1
 509 0448 84000010 		b	$L20
 510 044c 00000000 		nop
 511              	
 512              	$L25:
  56:ui/MorseBox.c ****     }
  57:ui/MorseBox.c ****     if (mb->bufferPos >= MORSEBOX_MAX-1) {
 513              		.loc 1 58 0
 514 0450 2800C28F 		lw	$2,40($fp)
 515 0454 00000000 		nop
 516 0458 2800428C 		lw	$2,40($2)
 517 045c 00000000 		nop
 518 0460 27004228 		slt	$2,$2,39
 519 0464 04004014 		bne	$2,$0,$L28
 520 0468 00000000 		nop
 521              	
  58:ui/MorseBox.c ****       return 0; // buffer full
 522              		.loc 1 59 0
 523 046c 21100000 		move	$2,$0
 524 0470 7A000010 		b	$L20
 525 0474 00000000 		nop
 526              	
 527              	$L28:
  59:ui/MorseBox.c ****     }
  60:ui/MorseBox.c ****     mb->buffer[mb->bufferPos++] = InMorseCodeTree((mb->p - codetree) + (mb->pLen - 1)/2);
 528              		.loc 1 61 0
 529 0478 2800C28F 		lw	$2,40($fp)
 530 047c 00000000 		nop
 531 0480 2800508C 		lw	$16,40($2)
 532 0484 2800C28F 		lw	$2,40($fp)
 533 0488 00000000 		nop
 534 048c 2C00428C 		lw	$2,44($2)
 535 0490 00000000 		nop
 536 0494 21184000 		move	$3,$2
 537 0498 0000828F 		lw	$2,%got(codetree)($28)
 538 049c 00000000 		nop
 539 04a0 23186200 		subu	$3,$3,$2
 540 04a4 2800C28F 		lw	$2,40($fp)
 541 04a8 00000000 		nop
 542 04ac 3000428C 		lw	$2,48($2)
 543 04b0 00000000 		nop
 544 04b4 FFFF4224 		addiu	$2,$2,-1
 545 04b8 C2270200 		srl	$4,$2,31
 546 04bc 21108200 		addu	$2,$4,$2
 547 04c0 43100200 		sra	$2,$2,1
 548 04c4 21106200 		addu	$2,$3,$2
 549 04c8 21204000 		move	$4,$2
 550 04cc 0000828F 		lw	$2,%call16(InMorseCodeTree)($28)
 551 04d0 00000000 		nop
 552 04d4 21C84000 		move	$25,$2
 553 04d8 09F82003 		jalr	$25
 554 04dc 00000000 		nop
 555              	
 556 04e0 1000DC8F 		lw	$28,16($fp)
 557 04e4 21184000 		move	$3,$2
 558 04e8 2800C28F 		lw	$2,40($fp)
 559 04ec 00000000 		nop
 560 04f0 21105000 		addu	$2,$2,$16
 561 04f4 000043A0 		sb	$3,0($2)
 562 04f8 01000326 		addiu	$3,$16,1
 563 04fc 2800C28F 		lw	$2,40($fp)
 564 0500 00000000 		nop
 565 0504 280043AC 		sw	$3,40($2)
  61:ui/MorseBox.c ****     MorseBoxReset(mb);
 566              		.loc 1 62 0
 567 0508 2800C48F 		lw	$4,40($fp)
 568              		.option	pic0
 569 050c 0000000C 		jal	MorseBoxReset
 570 0510 00000000 		nop
 571              	
 572              		.option	pic2
 573 0514 1000DC8F 		lw	$28,16($fp)
  62:ui/MorseBox.c ****     return 1;
 574              		.loc 1 63 0
 575 0518 01000224 		li	$2,1			# 0x1
 576 051c 4F000010 		b	$L20
 577 0520 00000000 		nop
 578              	
 579              	$L24:
  63:ui/MorseBox.c ****   } else if (r == LEFT_ARROW) { // left arrow - dit
 580              		.loc 1 64 0
 581 0524 2C00C38F 		lw	$3,44($fp)
 582 0528 00440224 		li	$2,17408			# 0x4400
 583 052c 12006214 		bne	$3,$2,$L29
 584 0530 00000000 		nop
 585              	
  64:ui/MorseBox.c ****     InMorseNext('.', &mb->p, &mb->pLen);
 586              		.loc 1 65 0
 587 0534 2800C28F 		lw	$2,40($fp)
 588 0538 00000000 		nop
 589 053c 2C004324 		addiu	$3,$2,44
 590 0540 2800C28F 		lw	$2,40($fp)
 591 0544 00000000 		nop
 592 0548 30004224 		addiu	$2,$2,48
 593 054c 2E000424 		li	$4,46			# 0x2e
 594 0550 21286000 		move	$5,$3
 595 0554 21304000 		move	$6,$2
 596 0558 0000828F 		lw	$2,%call16(InMorseNext)($28)
 597 055c 00000000 		nop
 598 0560 21C84000 		move	$25,$2
 599 0564 09F82003 		jalr	$25
 600 0568 00000000 		nop
 601              	
 602 056c 1000DC8F 		lw	$28,16($fp)
 603 0570 39000010 		b	$L30
 604 0574 00000000 		nop
 605              	
 606              	$L29:
  65:ui/MorseBox.c ****   } else if (r == RIGHT_ARROW) { // right arrow - dash
 607              		.loc 1 66 0
 608 0578 2C00C38F 		lw	$3,44($fp)
 609 057c 00430224 		li	$2,17152			# 0x4300
 610 0580 12006214 		bne	$3,$2,$L31
 611 0584 00000000 		nop
 612              	
  66:ui/MorseBox.c ****     InMorseNext('-', &mb->p, &mb->pLen);
 613              		.loc 1 67 0
 614 0588 2800C28F 		lw	$2,40($fp)
 615 058c 00000000 		nop
 616 0590 2C004324 		addiu	$3,$2,44
 617 0594 2800C28F 		lw	$2,40($fp)
 618 0598 00000000 		nop
 619 059c 30004224 		addiu	$2,$2,48
 620 05a0 2D000424 		li	$4,45			# 0x2d
 621 05a4 21286000 		move	$5,$3
 622 05a8 21304000 		move	$6,$2
 623 05ac 0000828F 		lw	$2,%call16(InMorseNext)($28)
 624 05b0 00000000 		nop
 625 05b4 21C84000 		move	$25,$2
 626 05b8 09F82003 		jalr	$25
 627 05bc 00000000 		nop
 628              	
 629 05c0 1000DC8F 		lw	$28,16($fp)
 630 05c4 24000010 		b	$L30
 631 05c8 00000000 		nop
 632              	
 633              	$L31:
  67:ui/MorseBox.c ****   } else if (r < ' ' || r > '~') {
 634              		.loc 1 68 0
 635 05cc 2C00C28F 		lw	$2,44($fp)
 636 05d0 00000000 		nop
 637 05d4 20004228 		slt	$2,$2,32
 638 05d8 06004014 		bne	$2,$0,$L32
 639 05dc 00000000 		nop
 640              	
 641 05e0 2C00C28F 		lw	$2,44($fp)
 642 05e4 00000000 		nop
 643 05e8 7F004228 		slt	$2,$2,127
 644 05ec 04004014 		bne	$2,$0,$L33
 645 05f0 00000000 		nop
 646              	
 647              	$L32:
  68:ui/MorseBox.c ****     return 0; // unknown character
 648              		.loc 1 69 0
 649 05f4 21100000 		move	$2,$0
 650 05f8 18000010 		b	$L20
 651 05fc 00000000 		nop
 652              	
 653              	$L33:
  69:ui/MorseBox.c ****   } else {
  70:ui/MorseBox.c ****     mb->buffer[mb->bufferPos++] = r;
 654              		.loc 1 71 0
 655 0600 2800C28F 		lw	$2,40($fp)
 656 0604 00000000 		nop
 657 0608 2800428C 		lw	$2,40($2)
 658 060c 2C00C38F 		lw	$3,44($fp)
 659 0610 00000000 		nop
 660 0614 00260300 		sll	$4,$3,24
 661 0618 03260400 		sra	$4,$4,24
 662 061c 2800C38F 		lw	$3,40($fp)
 663 0620 00000000 		nop
 664 0624 21186200 		addu	$3,$3,$2
 665 0628 000064A0 		sb	$4,0($3)
 666 062c 01004324 		addiu	$3,$2,1
 667 0630 2800C28F 		lw	$2,40($fp)
 668 0634 00000000 		nop
 669 0638 280043AC 		sw	$3,40($2)
  71:ui/MorseBox.c ****     MorseBoxReset(mb);
 670              		.loc 1 72 0
 671 063c 2800C48F 		lw	$4,40($fp)
 672              		.option	pic0
 673 0640 0000000C 		jal	MorseBoxReset
 674 0644 00000000 		nop
 675              	
 676              		.option	pic2
 677 0648 1000DC8F 		lw	$28,16($fp)
  72:ui/MorseBox.c ****     return 1;
 678              		.loc 1 73 0
 679 064c 01000224 		li	$2,1			# 0x1
 680 0650 02000010 		b	$L20
 681 0654 00000000 		nop
 682              	
 683              	$L30:
  73:ui/MorseBox.c ****   }
  74:ui/MorseBox.c ****   return 0;
 684              		.loc 1 75 0
 685 0658 21100000 		move	$2,$0
 686              	$L20:
  75:ui/MorseBox.c **** }
 687              		.loc 1 76 0
 688 065c 21E8C003 		move	$sp,$fp
 689 0660 2400BF8F 		lw	$31,36($sp)
 690 0664 2000BE8F 		lw	$fp,32($sp)
 691 0668 1C00B08F 		lw	$16,28($sp)
 692 066c 2800BD27 		addiu	$sp,$sp,40
 693 0670 0800E003 		j	$31
 694 0674 00000000 		nop
 695              	
 696              		.set	macro
 697              		.set	reorder
 698              		.end	MorseBoxPushEvent
 699              	$LFE5:
 701              		.align	2
 702              		.globl	IsPrintable
 703              	$LFB6 = .
  76:ui/MorseBox.c **** 
  77:ui/MorseBox.c **** char IsPrintable(char c) {
 704              		.loc 1 78 0
 705              		.set	nomips16
 706              		.ent	IsPrintable
 708              	IsPrintable:
 709              		.frame	$fp,8,$31		# vars= 0, regs= 1/0, args= 0, gp= 0
 710              		.mask	0x40000000,-4
 711              		.fmask	0x00000000,0
 712              		.set	noreorder
 713              		.set	nomacro
 714              		
 715 0678 F8FFBD27 		addiu	$sp,$sp,-8
 716              	$LCFI21:
 717 067c 0400BEAF 		sw	$fp,4($sp)
 718              	$LCFI22:
 719 0680 21F0A003 		move	$fp,$sp
 720              	$LCFI23:
 721 0684 21108000 		move	$2,$4
 722 0688 0800C2A3 		sb	$2,8($fp)
  78:ui/MorseBox.c ****    return ((c >= '0') && (c <= '9')) || ((c >= 'A') && (c <= 'Z'));
 723              		.loc 1 79 0
 724 068c 0800C283 		lb	$2,8($fp)
 725 0690 00000000 		nop
 726 0694 30004228 		slt	$2,$2,48
 727 0698 06004014 		bne	$2,$0,$L36
 728 069c 00000000 		nop
 729              	
 730 06a0 0800C283 		lb	$2,8($fp)
 731 06a4 00000000 		nop
 732 06a8 3A004228 		slt	$2,$2,58
 733 06ac 0B004014 		bne	$2,$0,$L37
 734 06b0 00000000 		nop
 735              	
 736              	$L36:
 737 06b4 0800C283 		lb	$2,8($fp)
 738 06b8 00000000 		nop
 739 06bc 41004228 		slt	$2,$2,65
 740 06c0 09004014 		bne	$2,$0,$L38
 741 06c4 00000000 		nop
 742              	
 743 06c8 0800C283 		lb	$2,8($fp)
 744 06cc 00000000 		nop
 745 06d0 5B004228 		slt	$2,$2,91
 746 06d4 04004010 		beq	$2,$0,$L38
 747 06d8 00000000 		nop
 748              	
 749              	$L37:
 750 06dc 01000224 		li	$2,1			# 0x1
 751 06e0 02000010 		b	$L39
 752 06e4 00000000 		nop
 753              	
 754              	$L38:
 755 06e8 21100000 		move	$2,$0
 756              	$L39:
 757 06ec 00160200 		sll	$2,$2,24
 758 06f0 03160200 		sra	$2,$2,24
  79:ui/MorseBox.c **** }
 759              		.loc 1 80 0
 760 06f4 21E8C003 		move	$sp,$fp
 761 06f8 0400BE8F 		lw	$fp,4($sp)
 762 06fc 0800BD27 		addiu	$sp,$sp,8
 763 0700 0800E003 		j	$31
 764 0704 00000000 		nop
 765              	
 766              		.set	macro
 767              		.set	reorder
 768              		.end	IsPrintable
 769              	$LFE6:
 771              		.rdata
 772 0022 0000     		.align	2
 773              	$LC2:
 774 0024 1B5B376D 		.ascii	"\033[7m\000"
 774      00
 775 0029 000000   		.align	2
 776              	$LC3:
 777 002c 1B5B306D 		.ascii	"\033[0m\000"
 777      00
 778 0031 000000   		.align	2
 779              	$LC4:
 780 0034 5E00     		.ascii	"^\000"
 781              		.text
 782              		.align	2
 783              		.globl	MorseBoxDraw
 784              	$LFB7 = .
  80:ui/MorseBox.c **** 
  81:ui/MorseBox.c **** void MorseBoxDraw(MorseBox *mb) {
 785              		.loc 1 82 0
 786              		.set	nomips16
 787              		.ent	MorseBoxDraw
 789              	MorseBoxDraw:
 790              		.frame	$fp,56,$31		# vars= 24, regs= 2/0, args= 16, gp= 8
 791              		.mask	0xc0000000,-4
 792              		.fmask	0x00000000,0
 793              		.set	noreorder
 794              		.set	nomacro
 795              		
 796 0708 C8FFBD27 		addiu	$sp,$sp,-56
 797              	$LCFI24:
 798 070c 3400BFAF 		sw	$31,52($sp)
 799              	$LCFI25:
 800 0710 3000BEAF 		sw	$fp,48($sp)
 801              	$LCFI26:
 802 0714 21F0A003 		move	$fp,$sp
 803              	$LCFI27:
 804 0718 00001C3C 		lui	$28,%hi(__gnu_local_gp)
 805 071c 00009C27 		addiu	$28,$28,%lo(__gnu_local_gp)
 806 0720 1000BCAF 		.cprestore	16
 807 0724 3800C4AF 		sw	$4,56($fp)
  82:ui/MorseBox.c ****   vposition(stdout, mb->row, 0);
 808              		.loc 1 83 0
 809 0728 0000828F 		lw	$2,%got(stdout)($28)
 810 072c 00000000 		nop
 811 0730 0000438C 		lw	$3,0($2)
 812 0734 3800C28F 		lw	$2,56($fp)
 813 0738 00000000 		nop
 814 073c 34004280 		lb	$2,52($2)
 815 0740 21206000 		move	$4,$3
 816 0744 21284000 		move	$5,$2
 817 0748 21300000 		move	$6,$0
 818 074c 0000828F 		lw	$2,%call16(vposition)($28)
 819 0750 00000000 		nop
 820 0754 21C84000 		move	$25,$2
 821 0758 09F82003 		jalr	$25
 822 075c 00000000 		nop
 823              	
 824 0760 1000DC8F 		lw	$28,16($fp)
 825 0764 00000000 		nop
  83:ui/MorseBox.c ****   vclearlines(stdout, mb->row, mb->row + 2);
 826              		.loc 1 84 0
 827 0768 0000828F 		lw	$2,%got(stdout)($28)
 828 076c 00000000 		nop
 829 0770 0000448C 		lw	$4,0($2)
 830 0774 3800C28F 		lw	$2,56($fp)
 831 0778 00000000 		nop
 832 077c 34004280 		lb	$2,52($2)
 833 0780 00000000 		nop
 834 0784 21184000 		move	$3,$2
 835 0788 3800C28F 		lw	$2,56($fp)
 836 078c 00000000 		nop
 837 0790 34004280 		lb	$2,52($2)
 838 0794 00000000 		nop
 839 0798 02004224 		addiu	$2,$2,2
 840 079c 21286000 		move	$5,$3
 841 07a0 21304000 		move	$6,$2
 842 07a4 0000828F 		lw	$2,%call16(vclearlines)($28)
 843 07a8 00000000 		nop
 844 07ac 21C84000 		move	$25,$2
 845 07b0 09F82003 		jalr	$25
 846 07b4 00000000 		nop
 847              	
 848 07b8 1000DC8F 		lw	$28,16($fp)
  84:ui/MorseBox.c **** 
  85:ui/MorseBox.c ****   int pOffset = mb->p - codetree;
 849              		.loc 1 86 0
 850 07bc 3800C28F 		lw	$2,56($fp)
 851 07c0 00000000 		nop
 852 07c4 2C00428C 		lw	$2,44($2)
 853 07c8 00000000 		nop
 854 07cc 21184000 		move	$3,$2
 855 07d0 0000828F 		lw	$2,%got(codetree)($28)
 856 07d4 00000000 		nop
 857 07d8 23106200 		subu	$2,$3,$2
 858 07dc 2800C2AF 		sw	$2,40($fp)
 859              	$LBB2 = .
  86:ui/MorseBox.c ****   // Print codetree status
  87:ui/MorseBox.c ****   for (int i=0; i<pOffset; ++i)
 860              		.loc 1 88 0
 861 07e0 2400C0AF 		sw	$0,36($fp)
 862 07e4 1D000010 		b	$L42
 863 07e8 00000000 		nop
 864              	
 865              	$L45:
  88:ui/MorseBox.c ****     if (IsPrintable(InMorseCodeTree(i))
 866              		.loc 1 89 0
 867 07ec 2400C48F 		lw	$4,36($fp)
 868 07f0 0000828F 		lw	$2,%call16(InMorseCodeTree)($28)
 869 07f4 00000000 		nop
 870 07f8 21C84000 		move	$25,$2
 871 07fc 09F82003 		jalr	$25
 872 0800 00000000 		nop
 873              	
 874 0804 1000DC8F 		lw	$28,16($fp)
  89:ui/MorseBox.c ****         || (i == 31)) 
 875              		.loc 1 90 0
 876 0808 21204000 		move	$4,$2
 877              		.option	pic0
 878 080c 0000000C 		jal	IsPrintable
 879 0810 00000000 		nop
 880              	
 881              		.option	pic2
 882 0814 1000DC8F 		lw	$28,16($fp)
  89:ui/MorseBox.c ****         || (i == 31)) 
 883              		.loc 1 89 0
 884 0818 05004014 		bne	$2,$0,$L43
 885 081c 00000000 		nop
 886              	
 887 0820 2400C38F 		lw	$3,36($fp)
 888 0824 1F000224 		li	$2,31			# 0x1f
 889 0828 08006214 		bne	$3,$2,$L44
 890 082c 00000000 		nop
 891              	
 892              	$L43:
  90:ui/MorseBox.c ****       printf(" ");
 893              		.loc 1 91 0
 894 0830 20000424 		li	$4,32			# 0x20
 895 0834 0000828F 		lw	$2,%call16(putchar)($28)
 896 0838 00000000 		nop
 897 083c 21C84000 		move	$25,$2
 898 0840 09F82003 		jalr	$25
 899 0844 00000000 		nop
 900              	
 901 0848 1000DC8F 		lw	$28,16($fp)
 902              	$L44:
  88:ui/MorseBox.c ****     if (IsPrintable(InMorseCodeTree(i))
 903              		.loc 1 88 0
 904 084c 2400C28F 		lw	$2,36($fp)
 905 0850 00000000 		nop
 906 0854 01004224 		addiu	$2,$2,1
 907 0858 2400C2AF 		sw	$2,36($fp)
 908              	$L42:
 909 085c 2400C38F 		lw	$3,36($fp)
 910 0860 2800C28F 		lw	$2,40($fp)
 911 0864 00000000 		nop
 912 0868 2A106200 		slt	$2,$3,$2
 913 086c DFFF4014 		bne	$2,$0,$L45
 914 0870 00000000 		nop
 915              	
 916              	$LBE2 = .
 917              	$LBB3 = .
  91:ui/MorseBox.c ****   for (int i=0; i<mb->pLen; ++i) {
 918              		.loc 1 92 0
 919 0874 2000C0AF 		sw	$0,32($fp)
 920 0878 58000010 		b	$L46
 921 087c 00000000 		nop
 922              	
 923              	$L50:
  92:ui/MorseBox.c ****     if (IsPrintable(InMorseCodeTree(pOffset + i))
 924              		.loc 1 93 0
 925 0880 2800C38F 		lw	$3,40($fp)
 926 0884 2000C28F 		lw	$2,32($fp)
 927 0888 00000000 		nop
 928 088c 21106200 		addu	$2,$3,$2
 929 0890 21204000 		move	$4,$2
 930 0894 0000828F 		lw	$2,%call16(InMorseCodeTree)($28)
 931 0898 00000000 		nop
 932 089c 21C84000 		move	$25,$2
 933 08a0 09F82003 		jalr	$25
 934 08a4 00000000 		nop
 935              	
 936 08a8 1000DC8F 		lw	$28,16($fp)
  93:ui/MorseBox.c ****         || (i == 31)) 
 937              		.loc 1 94 0
 938 08ac 21204000 		move	$4,$2
 939              		.option	pic0
 940 08b0 0000000C 		jal	IsPrintable
 941 08b4 00000000 		nop
 942              	
 943              		.option	pic2
 944 08b8 1000DC8F 		lw	$28,16($fp)
  93:ui/MorseBox.c ****         || (i == 31)) 
 945              		.loc 1 93 0
 946 08bc 05004014 		bne	$2,$0,$L47
 947 08c0 00000000 		nop
 948              	
 949 08c4 2000C38F 		lw	$3,32($fp)
 950 08c8 1F000224 		li	$2,31			# 0x1f
 951 08cc 3F006214 		bne	$3,$2,$L48
 952 08d0 00000000 		nop
 953              	
 954              	$L47:
  94:ui/MorseBox.c ****     {
  95:ui/MorseBox.c ****       if (i == (mb->pLen - 1)/2)
 955              		.loc 1 96 0
 956 08d4 3800C28F 		lw	$2,56($fp)
 957 08d8 00000000 		nop
 958 08dc 3000428C 		lw	$2,48($2)
 959 08e0 00000000 		nop
 960 08e4 FFFF4224 		addiu	$2,$2,-1
 961 08e8 C21F0200 		srl	$3,$2,31
 962 08ec 21106200 		addu	$2,$3,$2
 963 08f0 43100200 		sra	$2,$2,1
 964 08f4 21184000 		move	$3,$2
 965 08f8 2000C28F 		lw	$2,32($fp)
 966 08fc 00000000 		nop
 967 0900 0A006214 		bne	$3,$2,$L49
 968 0904 00000000 		nop
 969              	
  96:ui/MorseBox.c ****         printf(VINVERT); // reverse video
 970              		.loc 1 97 0
 971 0908 0000023C 		lui	$2,%hi($LC2)
 972 090c 24004224 		addiu	$2,$2,%lo($LC2)
 973 0910 21204000 		move	$4,$2
 974 0914 0000828F 		lw	$2,%call16(printf)($28)
 975 0918 00000000 		nop
 976 091c 21C84000 		move	$25,$2
 977 0920 09F82003 		jalr	$25
 978 0924 00000000 		nop
 979              	
 980 0928 1000DC8F 		lw	$28,16($fp)
 981              	$L49:
  97:ui/MorseBox.c ****       printf("%c", InMorseCodeTree(pOffset + i));
 982              		.loc 1 98 0
 983 092c 2800C38F 		lw	$3,40($fp)
 984 0930 2000C28F 		lw	$2,32($fp)
 985 0934 00000000 		nop
 986 0938 21106200 		addu	$2,$3,$2
 987 093c 21204000 		move	$4,$2
 988 0940 0000828F 		lw	$2,%call16(InMorseCodeTree)($28)
 989 0944 00000000 		nop
 990 0948 21C84000 		move	$25,$2
 991 094c 09F82003 		jalr	$25
 992 0950 00000000 		nop
 993              	
 994 0954 1000DC8F 		lw	$28,16($fp)
 995 0958 21204000 		move	$4,$2
 996 095c 0000828F 		lw	$2,%call16(putchar)($28)
 997 0960 00000000 		nop
 998 0964 21C84000 		move	$25,$2
 999 0968 09F82003 		jalr	$25
 1000 096c 00000000 		nop
 1001              	
 1002 0970 1000DC8F 		lw	$28,16($fp)
  98:ui/MorseBox.c ****       if (i == (mb->pLen - 1)/2)
 1003              		.loc 1 99 0
 1004 0974 3800C28F 		lw	$2,56($fp)
 1005 0978 00000000 		nop
 1006 097c 3000428C 		lw	$2,48($2)
 1007 0980 00000000 		nop
 1008 0984 FFFF4224 		addiu	$2,$2,-1
 1009 0988 C21F0200 		srl	$3,$2,31
 1010 098c 21106200 		addu	$2,$3,$2
 1011 0990 43100200 		sra	$2,$2,1
 1012 0994 21184000 		move	$3,$2
 1013 0998 2000C28F 		lw	$2,32($fp)
 1014 099c 00000000 		nop
 1015 09a0 0A006214 		bne	$3,$2,$L48
 1016 09a4 00000000 		nop
 1017              	
  99:ui/MorseBox.c ****         printf(VNORMAL); // normal video
 1018              		.loc 1 100 0
 1019 09a8 0000023C 		lui	$2,%hi($LC3)
 1020 09ac 2C004224 		addiu	$2,$2,%lo($LC3)
 1021 09b0 21204000 		move	$4,$2
 1022 09b4 0000828F 		lw	$2,%call16(printf)($28)
 1023 09b8 00000000 		nop
 1024 09bc 21C84000 		move	$25,$2
 1025 09c0 09F82003 		jalr	$25
 1026 09c4 00000000 		nop
 1027              	
 1028 09c8 1000DC8F 		lw	$28,16($fp)
 1029              	$L48:
  92:ui/MorseBox.c ****   for (int i=0; i<mb->pLen; ++i) {
 1030              		.loc 1 92 0
 1031 09cc 2000C28F 		lw	$2,32($fp)
 1032 09d0 00000000 		nop
 1033 09d4 01004224 		addiu	$2,$2,1
 1034 09d8 2000C2AF 		sw	$2,32($fp)
 1035              	$L46:
 1036 09dc 3800C28F 		lw	$2,56($fp)
 1037 09e0 00000000 		nop
 1038 09e4 3000438C 		lw	$3,48($2)
 1039 09e8 2000C28F 		lw	$2,32($fp)
 1040 09ec 00000000 		nop
 1041 09f0 2A104300 		slt	$2,$2,$3
 1042 09f4 A2FF4014 		bne	$2,$0,$L50
 1043 09f8 00000000 		nop
 1044              	
 1045              	$LBE3 = .
 100:ui/MorseBox.c ****     }
 101:ui/MorseBox.c ****   }
 102:ui/MorseBox.c ****   printf("\n");
 1046              		.loc 1 103 0
 1047 09fc 0A000424 		li	$4,10			# 0xa
 1048 0a00 0000828F 		lw	$2,%call16(putchar)($28)
 1049 0a04 00000000 		nop
 1050 0a08 21C84000 		move	$25,$2
 1051 0a0c 09F82003 		jalr	$25
 1052 0a10 00000000 		nop
 1053              	
 1054 0a14 1000DC8F 		lw	$28,16($fp)
 1055              	$LBB4 = .
 103:ui/MorseBox.c ****   // Print pointer
 104:ui/MorseBox.c ****   for (int i=0; i < pOffset + ((mb->pLen -1)/2); ++i) {
 1056              		.loc 1 105 0
 1057 0a18 1C00C0AF 		sw	$0,28($fp)
 1058 0a1c 1D000010 		b	$L51
 1059 0a20 00000000 		nop
 1060              	
 1061              	$L54:
 105:ui/MorseBox.c ****     if (IsPrintable(InMorseCodeTree(i))
 1062              		.loc 1 106 0
 1063 0a24 1C00C48F 		lw	$4,28($fp)
 1064 0a28 0000828F 		lw	$2,%call16(InMorseCodeTree)($28)
 1065 0a2c 00000000 		nop
 1066 0a30 21C84000 		move	$25,$2
 1067 0a34 09F82003 		jalr	$25
 1068 0a38 00000000 		nop
 1069              	
 1070 0a3c 1000DC8F 		lw	$28,16($fp)
 106:ui/MorseBox.c ****         || (i == 31)) 
 1071              		.loc 1 107 0
 1072 0a40 21204000 		move	$4,$2
 1073              		.option	pic0
 1074 0a44 0000000C 		jal	IsPrintable
 1075 0a48 00000000 		nop
 1076              	
 1077              		.option	pic2
 1078 0a4c 1000DC8F 		lw	$28,16($fp)
 106:ui/MorseBox.c ****         || (i == 31)) 
 1079              		.loc 1 106 0
 1080 0a50 05004014 		bne	$2,$0,$L52
 1081 0a54 00000000 		nop
 1082              	
 1083 0a58 1C00C38F 		lw	$3,28($fp)
 1084 0a5c 1F000224 		li	$2,31			# 0x1f
 1085 0a60 08006214 		bne	$3,$2,$L53
 1086 0a64 00000000 		nop
 1087              	
 1088              	$L52:
 107:ui/MorseBox.c ****     {
 108:ui/MorseBox.c ****       printf("-");
 1089              		.loc 1 109 0
 1090 0a68 2D000424 		li	$4,45			# 0x2d
 1091 0a6c 0000828F 		lw	$2,%call16(putchar)($28)
 1092 0a70 00000000 		nop
 1093 0a74 21C84000 		move	$25,$2
 1094 0a78 09F82003 		jalr	$25
 1095 0a7c 00000000 		nop
 1096              	
 1097 0a80 1000DC8F 		lw	$28,16($fp)
 1098              	$L53:
 105:ui/MorseBox.c ****   for (int i=0; i < pOffset + ((mb->pLen -1)/2); ++i) {
 1099              		.loc 1 105 0
 1100 0a84 1C00C28F 		lw	$2,28($fp)
 1101 0a88 00000000 		nop
 1102 0a8c 01004224 		addiu	$2,$2,1
 1103 0a90 1C00C2AF 		sw	$2,28($fp)
 1104              	$L51:
 1105 0a94 3800C28F 		lw	$2,56($fp)
 1106 0a98 00000000 		nop
 1107 0a9c 3000428C 		lw	$2,48($2)
 1108 0aa0 00000000 		nop
 1109 0aa4 FFFF4224 		addiu	$2,$2,-1
 1110 0aa8 C21F0200 		srl	$3,$2,31
 1111 0aac 21106200 		addu	$2,$3,$2
 1112 0ab0 43100200 		sra	$2,$2,1
 1113 0ab4 21184000 		move	$3,$2
 1114 0ab8 2800C28F 		lw	$2,40($fp)
 1115 0abc 00000000 		nop
 1116 0ac0 21186200 		addu	$3,$3,$2
 1117 0ac4 1C00C28F 		lw	$2,28($fp)
 1118 0ac8 00000000 		nop
 1119 0acc 2A104300 		slt	$2,$2,$3
 1120 0ad0 D4FF4014 		bne	$2,$0,$L54
 1121 0ad4 00000000 		nop
 1122              	
 1123              	$LBE4 = .
 109:ui/MorseBox.c ****     }
 110:ui/MorseBox.c ****   }
 111:ui/MorseBox.c ****   printf("^\n");
 1124              		.loc 1 112 0
 1125 0ad8 0000023C 		lui	$2,%hi($LC4)
 1126 0adc 34004424 		addiu	$4,$2,%lo($LC4)
 1127 0ae0 0000828F 		lw	$2,%call16(puts)($28)
 1128 0ae4 00000000 		nop
 1129 0ae8 21C84000 		move	$25,$2
 1130 0aec 09F82003 		jalr	$25
 1131 0af0 00000000 		nop
 1132              	
 1133 0af4 1000DC8F 		lw	$28,16($fp)
 112:ui/MorseBox.c ****   // Print accumulated input
 113:ui/MorseBox.c ****   putc(mb->prompt[0], stdout);
 1134              		.loc 1 114 0
 1135 0af8 3800C28F 		lw	$2,56($fp)
 1136 0afc 00000000 		nop
 1137 0b00 36004280 		lb	$2,54($2)
 1138 0b04 00000000 		nop
 1139 0b08 21184000 		move	$3,$2
 1140 0b0c 0000828F 		lw	$2,%got(stdout)($28)
 1141 0b10 00000000 		nop
 1142 0b14 0000428C 		lw	$2,0($2)
 1143 0b18 21206000 		move	$4,$3
 1144 0b1c 21284000 		move	$5,$2
 1145 0b20 0000828F 		lw	$2,%call16(_IO_putc)($28)
 1146 0b24 00000000 		nop
 1147 0b28 21C84000 		move	$25,$2
 1148 0b2c 09F82003 		jalr	$25
 1149 0b30 00000000 		nop
 1150              	
 1151 0b34 1000DC8F 		lw	$28,16($fp)
 114:ui/MorseBox.c ****   putc(mb->prompt[1], stdout);
 1152              		.loc 1 115 0
 1153 0b38 3800C28F 		lw	$2,56($fp)
 1154 0b3c 00000000 		nop
 1155 0b40 37004280 		lb	$2,55($2)
 1156 0b44 00000000 		nop
 1157 0b48 21184000 		move	$3,$2
 1158 0b4c 0000828F 		lw	$2,%got(stdout)($28)
 1159 0b50 00000000 		nop
 1160 0b54 0000428C 		lw	$2,0($2)
 1161 0b58 21206000 		move	$4,$3
 1162 0b5c 21284000 		move	$5,$2
 1163 0b60 0000828F 		lw	$2,%call16(_IO_putc)($28)
 1164 0b64 00000000 		nop
 1165 0b68 21C84000 		move	$25,$2
 1166 0b6c 09F82003 		jalr	$25
 1167 0b70 00000000 		nop
 1168              	
 1169 0b74 1000DC8F 		lw	$28,16($fp)
 1170 0b78 00000000 		nop
 115:ui/MorseBox.c ****   putc(' ', stdout);
 1171              		.loc 1 116 0
 1172 0b7c 0000828F 		lw	$2,%got(stdout)($28)
 1173 0b80 00000000 		nop
 1174 0b84 0000428C 		lw	$2,0($2)
 1175 0b88 20000424 		li	$4,32			# 0x20
 1176 0b8c 21284000 		move	$5,$2
 1177 0b90 0000828F 		lw	$2,%call16(_IO_putc)($28)
 1178 0b94 00000000 		nop
 1179 0b98 21C84000 		move	$25,$2
 1180 0b9c 09F82003 		jalr	$25
 1181 0ba0 00000000 		nop
 1182              	
 1183 0ba4 1000DC8F 		lw	$28,16($fp)
 1184              	$LBB5 = .
 116:ui/MorseBox.c ****   for (int i=0; i<mb->bufferPos; ++i)
 1185              		.loc 1 117 0
 1186 0ba8 1800C0AF 		sw	$0,24($fp)
 1187 0bac 12000010 		b	$L55
 1188 0bb0 00000000 		nop
 1189              	
 1190              	$L56:
 117:ui/MorseBox.c ****     printf("%c", mb->buffer[i]);
 1191              		.loc 1 118 0
 1192 0bb4 1800C28F 		lw	$2,24($fp)
 1193 0bb8 3800C38F 		lw	$3,56($fp)
 1194 0bbc 00000000 		nop
 1195 0bc0 21106200 		addu	$2,$3,$2
 1196 0bc4 00004280 		lb	$2,0($2)
 1197 0bc8 00000000 		nop
 1198 0bcc 21204000 		move	$4,$2
 1199 0bd0 0000828F 		lw	$2,%call16(putchar)($28)
 1200 0bd4 00000000 		nop
 1201 0bd8 21C84000 		move	$25,$2
 1202 0bdc 09F82003 		jalr	$25
 1203 0be0 00000000 		nop
 1204              	
 1205 0be4 1000DC8F 		lw	$28,16($fp)
 117:ui/MorseBox.c ****     printf("%c", mb->buffer[i]);
 1206              		.loc 1 117 0
 1207 0be8 1800C28F 		lw	$2,24($fp)
 1208 0bec 00000000 		nop
 1209 0bf0 01004224 		addiu	$2,$2,1
 1210 0bf4 1800C2AF 		sw	$2,24($fp)
 1211              	$L55:
 1212 0bf8 3800C28F 		lw	$2,56($fp)
 1213 0bfc 00000000 		nop
 1214 0c00 2800438C 		lw	$3,40($2)
 1215 0c04 1800C28F 		lw	$2,24($fp)
 1216 0c08 00000000 		nop
 1217 0c0c 2A104300 		slt	$2,$2,$3
 1218 0c10 E8FF4014 		bne	$2,$0,$L56
 1219 0c14 00000000 		nop
 1220              	
 1221              	$LBE5 = .
 118:ui/MorseBox.c ****   fflush(stdout);
 1222              		.loc 1 119 0
 1223 0c18 0000828F 		lw	$2,%got(stdout)($28)
 1224 0c1c 00000000 		nop
 1225 0c20 0000428C 		lw	$2,0($2)
 1226 0c24 00000000 		nop
 1227 0c28 21204000 		move	$4,$2
 1228 0c2c 0000828F 		lw	$2,%call16(fflush)($28)
 1229 0c30 00000000 		nop
 1230 0c34 21C84000 		move	$25,$2
 1231 0c38 09F82003 		jalr	$25
 1232 0c3c 00000000 		nop
 1233              	
 1234 0c40 1000DC8F 		lw	$28,16($fp)
 119:ui/MorseBox.c **** }
 1235              		.loc 1 120 0
 1236 0c44 21E8C003 		move	$sp,$fp
 1237 0c48 3400BF8F 		lw	$31,52($sp)
 1238 0c4c 3000BE8F 		lw	$fp,48($sp)
 1239 0c50 3800BD27 		addiu	$sp,$sp,56
 1240 0c54 0800E003 		j	$31
 1241 0c58 00000000 		nop
 1242              	
 1243              		.set	macro
 1244              		.set	reorder
 1245              		.end	MorseBoxDraw
 1246              	$LFE7:
 1248              		.rdata
 1249 0036 0000     		.align	2
 1252              	__PRETTY_FUNCTION__.1763:
 1253 0038 4D6F7273 		.ascii	"MorseBoxSetPrompt\000"
 1253      65426F78 
 1253      53657450 
 1253      726F6D70 
 1253      7400
 1450              	$Letext0:
DEFINED SYMBOLS
                            *ABS*:0000000000000000 ui/MorseBox.c
     /tmp/cc6Z3O6f.s:21     .text:0000000000000000 MorseBoxInit
     /tmp/cc6Z3O6f.s:102    .text:00000000000000a4 MorseBoxSetPrompt
     /tmp/cc6Z3O6f.s:1252   .rodata:0000000000000038 __PRETTY_FUNCTION__.1763
     /tmp/cc6Z3O6f.s:181    .text:000000000000015c MorseBoxSetBuffer
     /tmp/cc6Z3O6f.s:282    .text:000000000000024c MorseBoxGetBuffer
     /tmp/cc6Z3O6f.s:317    .text:0000000000000274 MorseBoxReset
     /tmp/cc6Z3O6f.s:369    .text:00000000000002d8 MorseBoxPushEvent
     /tmp/cc6Z3O6f.s:708    .text:0000000000000678 IsPrintable
     /tmp/cc6Z3O6f.s:789    .text:0000000000000708 MorseBoxDraw

UNDEFINED SYMBOLS
__gnu_local_gp
codetree
__assert_fail
InMorseCodeTree
InMorseNext
stdout
vposition
vclearlines
putchar
printf
puts
_IO_putc
fflush
