   1              		.section .mdebug.abi32
   2              		.previous
   3              		.gnu_attribute 4, 3
   4              		.abicalls
  12              	$Ltext0:
  13              		.rdata
  14              		.align	2
  15              	$LC0:
  16 0000 74657374 		.ascii	"test.txt\000"
  16      2E747874 
  16      00
  17 0009 000000   		.align	2
  18              	$LC1:
  19 000c 61707073 		.ascii	"apps/ViewFile.c\000"
  19      2F566965 
  19      7746696C 
  19      652E6300 
  20              		.align	2
  21              	$LC2:
  22 001c 3000     		.ascii	"0\000"
  23 001e 0000     		.align	2
  24              	$LC3:
  25 0020 4661696C 		.ascii	"Failed to open for reading\000"
  25      65642074 
  25      6F206F70 
  25      656E2066 
  25      6F722072 
  26 003b 00       		.align	2
  27              	$LC4:
  28 003c 0A0A202D 		.ascii	"\012\012 -- END OF FILE -- \012\012\000"
  28      2D20454E 
  28      44204F46 
  28      2046494C 
  28      45202D2D 
  29              		.text
  30              		.align	2
  31              		.globl	main
  32              	$LFB0 = .
  33              		.file 1 "apps/ViewFile.c"
   0:apps/ViewFile.c **** #include "Platform.h"
   1:apps/ViewFile.c **** #include "stdio.h"
   2:apps/ViewFile.c **** #ifdef AVR
   3:apps/ViewFile.c **** #  include <util/delay.h>
   4:apps/ViewFile.c **** #  include <avr/io.h>
   5:apps/ViewFile.c **** #endif
   6:apps/ViewFile.c **** 
   7:apps/ViewFile.c **** int main(int argc, char **argv) {
  34              		.loc 1 8 0
  35              		.set	nomips16
  36              		.ent	main
  38              	main:
  39              		.frame	$fp,136,$31		# vars= 72, regs= 10/0, args= 16, gp= 8
  40              		.mask	0xc0ff0000,-4
  41              		.fmask	0x00000000,0
  42              		.set	noreorder
  43              		.set	nomacro
  44              		
  45 0000 78FFBD27 		addiu	$sp,$sp,-136
  46              	$LCFI0:
  47 0004 8400BFAF 		sw	$31,132($sp)
  48              	$LCFI1:
  49 0008 8000BEAF 		sw	$fp,128($sp)
  50              	$LCFI2:
  51 000c 7C00B7AF 		sw	$23,124($sp)
  52              	$LCFI3:
  53 0010 7800B6AF 		sw	$22,120($sp)
  54              	$LCFI4:
  55 0014 7400B5AF 		sw	$21,116($sp)
  56              	$LCFI5:
  57 0018 7000B4AF 		sw	$20,112($sp)
  58              	$LCFI6:
  59 001c 6C00B3AF 		sw	$19,108($sp)
  60              	$LCFI7:
  61 0020 6800B2AF 		sw	$18,104($sp)
  62              	$LCFI8:
  63 0024 6400B1AF 		sw	$17,100($sp)
  64              	$LCFI9:
  65 0028 6000B0AF 		sw	$16,96($sp)
  66              	$LCFI10:
  67 002c 21F0A003 		move	$fp,$sp
  68              	$LCFI11:
  69 0030 00001C3C 		lui	$28,%hi(__gnu_local_gp)
  70 0034 00009C27 		addiu	$28,$28,%lo(__gnu_local_gp)
  71 0038 1000BCAF 		.cprestore	16
  72 003c 8800C4AF 		sw	$4,136($fp)
  73 0040 8C00C5AF 		sw	$5,140($fp)
   8:apps/ViewFile.c ****   const char *fileName="test.txt";
  74              		.loc 1 9 0
  75 0044 0000023C 		lui	$2,%hi($LC0)
  76 0048 00004224 		addiu	$2,$2,%lo($LC0)
  77 004c 2800C2AF 		sw	$2,40($fp)
   9:apps/ViewFile.c ****   DelayMs(1000);
  78              		.loc 1 10 0
  79 0050 E8030424 		li	$4,1000			# 0x3e8
  80 0054 0000828F 		lw	$2,%call16(DelayMs)($28)
  81 0058 00000000 		nop
  82 005c 21C84000 		move	$25,$2
  83 0060 09F82003 		jalr	$25
  84 0064 00000000 		nop
  85              	
  86 0068 1000DC8F 		lw	$28,16($fp)
  87 006c 00000000 		nop
  10:apps/ViewFile.c ****   PlatformInit();
  88              		.loc 1 11 0
  89 0070 0000828F 		lw	$2,%call16(PlatformInit)($28)
  90 0074 00000000 		nop
  91 0078 21C84000 		move	$25,$2
  92 007c 09F82003 		jalr	$25
  93 0080 00000000 		nop
  94              	
  95 0084 1000DC8F 		lw	$28,16($fp)
  96 0088 00000000 		nop
  11:apps/ViewFile.c ****   ERRORassert();
  97              		.loc 1 12 0
  98 008c 0000828F 		lw	$2,%got(errorMsg)($28)
  99 0090 00000000 		nop
 100 0094 0000428C 		lw	$2,0($2)
 101 0098 00000000 		nop
 102 009c 18004010 		beq	$2,$0,$L2
 103 00a0 00000000 		nop
 104              	
 105 00a4 0000023C 		lui	$2,%hi(__func__.1715)
 106 00a8 54004424 		addiu	$4,$2,%lo(__func__.1715)
 107 00ac 0000023C 		lui	$2,%hi($LC1)
 108 00b0 0C004524 		addiu	$5,$2,%lo($LC1)
 109 00b4 0C000624 		li	$6,12			# 0xc
 110 00b8 0000828F 		lw	$2,%call16(ERRORprint2)($28)
 111 00bc 00000000 		nop
 112 00c0 21C84000 		move	$25,$2
 113 00c4 09F82003 		jalr	$25
 114 00c8 00000000 		nop
 115              	
 116 00cc 1000DC8F 		lw	$28,16($fp)
 117 00d0 0000023C 		lui	$2,%hi($LC2)
 118 00d4 1C004424 		addiu	$4,$2,%lo($LC2)
 119 00d8 0000023C 		lui	$2,%hi($LC1)
 120 00dc 0C004524 		addiu	$5,$2,%lo($LC1)
 121 00e0 0C000624 		li	$6,12			# 0xc
 122 00e4 0000023C 		lui	$2,%hi(__PRETTY_FUNCTION__.1716)
 123 00e8 5C004724 		addiu	$7,$2,%lo(__PRETTY_FUNCTION__.1716)
 124 00ec 0000828F 		lw	$2,%call16(__assert_fail)($28)
 125 00f0 00000000 		nop
 126 00f4 21C84000 		move	$25,$2
 127 00f8 09F82003 		jalr	$25
 128 00fc 00000000 		nop
 129              	
 130              	$L2:
  12:apps/ViewFile.c ****   StackPrintInfo(stdout);
 131              		.loc 1 13 0
 132 0100 0000828F 		lw	$2,%got(stdout)($28)
 133 0104 00000000 		nop
 134 0108 0000428C 		lw	$2,0($2)
 135 010c 00000000 		nop
 136 0110 21204000 		move	$4,$2
 137 0114 0000828F 		lw	$2,%call16(StackPrintInfo)($28)
 138 0118 00000000 		nop
 139 011c 21C84000 		move	$25,$2
 140 0120 09F82003 		jalr	$25
 141 0124 00000000 		nop
 142              	
 143 0128 1000DC8F 		lw	$28,16($fp)
  13:apps/ViewFile.c ****   DelayMs(1000);
 144              		.loc 1 14 0
 145 012c E8030424 		li	$4,1000			# 0x3e8
 146 0130 0000828F 		lw	$2,%call16(DelayMs)($28)
 147 0134 00000000 		nop
 148 0138 21C84000 		move	$25,$2
 149 013c 09F82003 		jalr	$25
 150 0140 00000000 		nop
 151              	
 152 0144 1000DC8F 		lw	$28,16($fp)
  14:apps/ViewFile.c **** 
  15:apps/ViewFile.c ****   FileOpenRO(fileName);
 153              		.loc 1 16 0
 154 0148 2800C48F 		lw	$4,40($fp)
 155 014c 0000828F 		lw	$2,%call16(FileOpenRO)($28)
 156 0150 00000000 		nop
 157 0154 21C84000 		move	$25,$2
 158 0158 09F82003 		jalr	$25
 159 015c 00000000 		nop
 160              	
 161 0160 1000DC8F 		lw	$28,16($fp)
 162 0164 00000000 		nop
  16:apps/ViewFile.c ****   if (IsError) {
 163              		.loc 1 17 0
 164 0168 0000828F 		lw	$2,%got(errorMsg)($28)
 165 016c 00000000 		nop
 166 0170 0000428C 		lw	$2,0($2)
 167 0174 00000000 		nop
 168 0178 23004010 		beq	$2,$0,$L3
 169 017c 00000000 		nop
 170              	
  17:apps/ViewFile.c ****     ERRORprint();
 171              		.loc 1 18 0
 172 0180 0000023C 		lui	$2,%hi(__func__.1715)
 173 0184 54004424 		addiu	$4,$2,%lo(__func__.1715)
 174 0188 0000023C 		lui	$2,%hi($LC1)
 175 018c 0C004524 		addiu	$5,$2,%lo($LC1)
 176 0190 12000624 		li	$6,18			# 0x12
 177 0194 0000828F 		lw	$2,%call16(ERRORprint2)($28)
 178 0198 00000000 		nop
 179 019c 21C84000 		move	$25,$2
 180 01a0 09F82003 		jalr	$25
 181 01a4 00000000 		nop
 182              	
 183 01a8 1000DC8F 		lw	$28,16($fp)
  18:apps/ViewFile.c ****     printf_P(PSTR("Failed to open for reading"));
 184              		.loc 1 19 0
 185 01ac 0000023C 		lui	$2,%hi($LC3)
 186 01b0 20004224 		addiu	$2,$2,%lo($LC3)
 187 01b4 21204000 		move	$4,$2
 188 01b8 0000828F 		lw	$2,%call16(printf)($28)
 189 01bc 00000000 		nop
 190 01c0 21C84000 		move	$25,$2
 191 01c4 09F82003 		jalr	$25
 192 01c8 00000000 		nop
 193              	
 194 01cc 1000DC8F 		lw	$28,16($fp)
 195 01d0 00000000 		nop
 196              	$L4:
  19:apps/ViewFile.c ****     while (InputCheck() == -1)
 197              		.loc 1 20 0
 198 01d4 0000828F 		lw	$2,%call16(InputCheck)($28)
 199 01d8 00000000 		nop
 200 01dc 21C84000 		move	$25,$2
 201 01e0 09F82003 		jalr	$25
 202 01e4 00000000 		nop
 203              	
 204 01e8 1000DC8F 		lw	$28,16($fp)
 205 01ec 21184000 		move	$3,$2
 206 01f0 FFFF0224 		li	$2,-1			# 0xffffffffffffffff
 207 01f4 F7FF6210 		beq	$3,$2,$L4
 208 01f8 00000000 		nop
 209              	
  20:apps/ViewFile.c ****       ;
  21:apps/ViewFile.c ****     return -1;
 210              		.loc 1 22 0
 211 01fc FFFF0224 		li	$2,-1			# 0xffffffffffffffff
 212 0200 B3000010 		b	$L5
 213 0204 00000000 		nop
 214              	
 215              	$L3:
  22:apps/ViewFile.c ****   }
  23:apps/ViewFile.c **** 
  24:apps/ViewFile.c ****   int ln=0;
 216              		.loc 1 25 0
 217 0208 2400C0AF 		sw	$0,36($fp)
 218 020c 02000010 		b	$L15
 219 0210 00000000 		nop
 220              	
 221              	$L17:
  25:apps/ViewFile.c ****   while (1) {
  26:apps/ViewFile.c ****     const int bufSize=20;
  27:apps/ViewFile.c ****     char buf[bufSize];
  28:apps/ViewFile.c ****     int r = FileRead(buf, bufSize);
  29:apps/ViewFile.c ****     if (r == _FDEV_EOF)
  30:apps/ViewFile.c ****       break;
  31:apps/ViewFile.c ****     fwrite(buf, r, 1, stdout); 
  32:apps/ViewFile.c ****     for (int i=0; i<r; ++i) {
  33:apps/ViewFile.c ****       if (buf[i] == 10) {
  34:apps/ViewFile.c ****         ++ln;
  35:apps/ViewFile.c ****         if (!(ln % 24)) {
  36:apps/ViewFile.c ****           while (InputCheck() != -1) // clear anything pending
  37:apps/ViewFile.c ****             ;
  38:apps/ViewFile.c ****           while (InputCheck() == -1) // wait for new input
  39:apps/ViewFile.c ****             ;
  40:apps/ViewFile.c ****           ++ln;
  41:apps/ViewFile.c ****         }
  42:apps/ViewFile.c ****       }
  43:apps/ViewFile.c ****     }
  44:apps/ViewFile.c ****   }
 222              		.loc 1 45 0
 223 0214 00000000 		nop
 224              	$L15:
  25:apps/ViewFile.c ****   while (1) {
 225              		.loc 1 25 0
 226 0218 2110A003 		move	$2,$sp
 227 021c 3800C2AF 		sw	$2,56($fp)
 228              	$LBB2 = .
  27:apps/ViewFile.c ****     const int bufSize=20;
 229              		.loc 1 27 0
 230 0220 14000224 		li	$2,20			# 0x14
 231 0224 2000C2AF 		sw	$2,32($fp)
  28:apps/ViewFile.c ****     char buf[bufSize];
 232              		.loc 1 28 0
 233 0228 2000C28F 		lw	$2,32($fp)
 234 022c 00000000 		nop
 235 0230 FFFF4224 		addiu	$2,$2,-1
 236 0234 3000C2AF 		sw	$2,48($fp)
 237 0238 2000C28F 		lw	$2,32($fp)
 238 023c 00000000 		nop
 239 0240 21904000 		move	$18,$2
 240 0244 21980000 		move	$19,$0
 241 0248 FFFF0224 		li	$2,-1			# 0xffffffffffffffff
 242 024c 24104202 		and	$2,$18,$2
 243 0250 4000C2AF 		sw	$2,64($fp)
 244 0254 0F006232 		andi	$2,$19,0xf
 245 0258 4400C2AF 		sw	$2,68($fp)
 246 025c 4000D28F 		lw	$18,64($fp)
 247 0260 4400D38F 		lw	$19,68($fp)
 248 0264 42171200 		srl	$2,$18,29
 249 0268 C0B81300 		sll	$23,$19,3
 250 026c 25B85700 		or	$23,$2,$23
 251 0270 C0B01200 		sll	$22,$18,3
 252 0274 FFFF0224 		li	$2,-1			# 0xffffffffffffffff
 253 0278 2410C202 		and	$2,$22,$2
 254 027c 4800C2AF 		sw	$2,72($fp)
 255 0280 0F00F932 		andi	$25,$23,0xf
 256 0284 4C00D9AF 		sw	$25,76($fp)
 257 0288 4800D68F 		lw	$22,72($fp)
 258 028c 4C00D78F 		lw	$23,76($fp)
 259 0290 2000C28F 		lw	$2,32($fp)
 260 0294 00000000 		nop
 261 0298 21804000 		move	$16,$2
 262 029c 21880000 		move	$17,$0
 263 02a0 FFFF0224 		li	$2,-1			# 0xffffffffffffffff
 264 02a4 24100202 		and	$2,$16,$2
 265 02a8 5000C2AF 		sw	$2,80($fp)
 266 02ac 0F002232 		andi	$2,$17,0xf
 267 02b0 5400C2AF 		sw	$2,84($fp)
 268 02b4 5000D08F 		lw	$16,80($fp)
 269 02b8 5400D18F 		lw	$17,84($fp)
 270 02bc 42171000 		srl	$2,$16,29
 271 02c0 C0A81100 		sll	$21,$17,3
 272 02c4 25A85500 		or	$21,$2,$21
 273 02c8 C0A01000 		sll	$20,$16,3
 274 02cc FFFF0224 		li	$2,-1			# 0xffffffffffffffff
 275 02d0 24108202 		and	$2,$20,$2
 276 02d4 5800C2AF 		sw	$2,88($fp)
 277 02d8 0F00B932 		andi	$25,$21,0xf
 278 02dc 5C00D9AF 		sw	$25,92($fp)
 279 02e0 5800D48F 		lw	$20,88($fp)
 280 02e4 5C00D58F 		lw	$21,92($fp)
 281 02e8 2000C28F 		lw	$2,32($fp)
 282 02ec 00000000 		nop
 283 02f0 07004224 		addiu	$2,$2,7
 284 02f4 07004224 		addiu	$2,$2,7
 285 02f8 C2100200 		srl	$2,$2,3
 286 02fc C0100200 		sll	$2,$2,3
 287 0300 23E8A203 		subu	$sp,$sp,$2
 288 0304 1000A227 		addiu	$2,$sp,16
 289 0308 07004224 		addiu	$2,$2,7
 290 030c C2100200 		srl	$2,$2,3
 291 0310 C0100200 		sll	$2,$2,3
 292 0314 2C00C2AF 		sw	$2,44($fp)
  29:apps/ViewFile.c ****     int r = FileRead(buf, bufSize);
 293              		.loc 1 29 0
 294 0318 2C00C38F 		lw	$3,44($fp)
 295 031c 2000C28F 		lw	$2,32($fp)
 296 0320 21206000 		move	$4,$3
 297 0324 21284000 		move	$5,$2
 298 0328 0000828F 		lw	$2,%call16(FileRead)($28)
 299 032c 00000000 		nop
 300 0330 21C84000 		move	$25,$2
 301 0334 09F82003 		jalr	$25
 302 0338 00000000 		nop
 303              	
 304 033c 1000DC8F 		lw	$28,16($fp)
 305 0340 1C00C2AF 		sw	$2,28($fp)
  30:apps/ViewFile.c ****     if (r == _FDEV_EOF)
 306              		.loc 1 30 0
 307 0344 1C00C38F 		lw	$3,28($fp)
 308 0348 FFFF0224 		li	$2,-1			# 0xffffffffffffffff
 309 034c 04006214 		bne	$3,$2,$L6
 310 0350 00000000 		nop
 311              	
 312 0354 21100000 		move	$2,$0
 313 0358 49000010 		b	$L7
 314 035c 00000000 		nop
 315              	
 316              	$L6:
  32:apps/ViewFile.c ****     fwrite(buf, r, 1, stdout); 
 317              		.loc 1 32 0
 318 0360 2C00C48F 		lw	$4,44($fp)
 319 0364 1C00C38F 		lw	$3,28($fp)
 320 0368 0000828F 		lw	$2,%got(stdout)($28)
 321 036c 00000000 		nop
 322 0370 0000428C 		lw	$2,0($2)
 323 0374 21286000 		move	$5,$3
 324 0378 01000624 		li	$6,1			# 0x1
 325 037c 21384000 		move	$7,$2
 326 0380 0000828F 		lw	$2,%call16(fwrite)($28)
 327 0384 00000000 		nop
 328 0388 21C84000 		move	$25,$2
 329 038c 09F82003 		jalr	$25
 330 0390 00000000 		nop
 331              	
 332 0394 1000DC8F 		lw	$28,16($fp)
 333              	$LBB3 = .
  33:apps/ViewFile.c ****     for (int i=0; i<r; ++i) {
 334              		.loc 1 33 0
 335 0398 1800C0AF 		sw	$0,24($fp)
 336 039c 31000010 		b	$L8
 337 03a0 00000000 		nop
 338              	
 339              	$L12:
  34:apps/ViewFile.c ****       if (buf[i] == 10) {
 340              		.loc 1 34 0
 341 03a4 1800C28F 		lw	$2,24($fp)
 342 03a8 2C00C38F 		lw	$3,44($fp)
 343 03ac 00000000 		nop
 344 03b0 21106200 		addu	$2,$3,$2
 345 03b4 00004380 		lb	$3,0($2)
 346 03b8 0A000224 		li	$2,10			# 0xa
 347 03bc 25006214 		bne	$3,$2,$L9
 348 03c0 00000000 		nop
 349              	
  35:apps/ViewFile.c ****         ++ln;
 350              		.loc 1 35 0
 351 03c4 2400C28F 		lw	$2,36($fp)
 352 03c8 00000000 		nop
 353 03cc 01004224 		addiu	$2,$2,1
 354 03d0 2400C2AF 		sw	$2,36($fp)
  36:apps/ViewFile.c ****         if (!(ln % 24)) {
 355              		.loc 1 36 0
 356 03d4 2400C38F 		lw	$3,36($fp)
 357 03d8 18000224 		li	$2,24			# 0x18
 358 03dc 02004014 		bne	$2,$0,1f
 359 03e0 1A006200 		div	$0,$3,$2
 360 03e4 0D000700 		break	7
 361              	1:
 362 03e8 10100000 		mfhi	$2
 363 03ec 19004014 		bne	$2,$0,$L9
 364 03f0 00000000 		nop
 365              	
 366              	$L10:
  37:apps/ViewFile.c ****           while (InputCheck() != -1) // clear anything pending
 367              		.loc 1 37 0
 368 03f4 0000828F 		lw	$2,%call16(InputCheck)($28)
 369 03f8 00000000 		nop
 370 03fc 21C84000 		move	$25,$2
 371 0400 09F82003 		jalr	$25
 372 0404 00000000 		nop
 373              	
 374 0408 1000DC8F 		lw	$28,16($fp)
 375 040c 21184000 		move	$3,$2
 376 0410 FFFF0224 		li	$2,-1			# 0xffffffffffffffff
 377 0414 F7FF6214 		bne	$3,$2,$L10
 378 0418 00000000 		nop
 379              	
 380              	$L11:
  39:apps/ViewFile.c ****           while (InputCheck() == -1) // wait for new input
 381              		.loc 1 39 0
 382 041c 0000828F 		lw	$2,%call16(InputCheck)($28)
 383 0420 00000000 		nop
 384 0424 21C84000 		move	$25,$2
 385 0428 09F82003 		jalr	$25
 386 042c 00000000 		nop
 387              	
 388 0430 1000DC8F 		lw	$28,16($fp)
 389 0434 21184000 		move	$3,$2
 390 0438 FFFF0224 		li	$2,-1			# 0xffffffffffffffff
 391 043c F7FF6210 		beq	$3,$2,$L11
 392 0440 00000000 		nop
 393              	
  41:apps/ViewFile.c ****           ++ln;
 394              		.loc 1 41 0
 395 0444 2400C28F 		lw	$2,36($fp)
 396 0448 00000000 		nop
 397 044c 01004224 		addiu	$2,$2,1
 398 0450 2400C2AF 		sw	$2,36($fp)
 399              	$L9:
  33:apps/ViewFile.c ****     for (int i=0; i<r; ++i) {
 400              		.loc 1 33 0
 401 0454 1800C28F 		lw	$2,24($fp)
 402 0458 00000000 		nop
 403 045c 01004224 		addiu	$2,$2,1
 404 0460 1800C2AF 		sw	$2,24($fp)
 405              	$L8:
 406 0464 1800C38F 		lw	$3,24($fp)
 407 0468 1C00C28F 		lw	$2,28($fp)
 408 046c 00000000 		nop
 409 0470 2A106200 		slt	$2,$3,$2
 410 0474 CBFF4014 		bne	$2,$0,$L12
 411 0478 00000000 		nop
 412              	
 413 047c 01000224 		li	$2,1			# 0x1
 414              	$L7:
 415 0480 3800DD8F 		lw	$sp,56($fp)
 416 0484 01000324 		li	$3,1			# 0x1
 417 0488 62FF4310 		beq	$2,$3,$L17
 418 048c 00000000 		nop
 419              	
 420              	$LBE3 = .
 421              	$LBE2 = .
  45:apps/ViewFile.c ****   OutP("\n\n -- END OF FILE -- \n\n");
 422              		.loc 1 46 0
 423 0490 0000023C 		lui	$2,%hi($LC4)
 424 0494 3C004424 		addiu	$4,$2,%lo($LC4)
 425 0498 0000828F 		lw	$2,%call16(OutS)($28)
 426 049c 00000000 		nop
 427 04a0 21C84000 		move	$25,$2
 428 04a4 09F82003 		jalr	$25
 429 04a8 00000000 		nop
 430              	
 431 04ac 1000DC8F 		lw	$28,16($fp)
  46:apps/ViewFile.c ****   DelayMs(10000);
 432              		.loc 1 47 0
 433 04b0 10270424 		li	$4,10000			# 0x2710
 434 04b4 0000828F 		lw	$2,%call16(DelayMs)($28)
 435 04b8 00000000 		nop
 436 04bc 21C84000 		move	$25,$2
 437 04c0 09F82003 		jalr	$25
 438 04c4 00000000 		nop
 439              	
 440 04c8 1000DC8F 		lw	$28,16($fp)
  47:apps/ViewFile.c ****   return 0;
 441              		.loc 1 48 0
 442 04cc 21100000 		move	$2,$0
 443              	$L5:
  48:apps/ViewFile.c **** }
 444              		.loc 1 49 0
 445 04d0 21E8C003 		move	$sp,$fp
 446 04d4 8400BF8F 		lw	$31,132($sp)
 447 04d8 8000BE8F 		lw	$fp,128($sp)
 448 04dc 7C00B78F 		lw	$23,124($sp)
 449 04e0 7800B68F 		lw	$22,120($sp)
 450 04e4 7400B58F 		lw	$21,116($sp)
 451 04e8 7000B48F 		lw	$20,112($sp)
 452 04ec 6C00B38F 		lw	$19,108($sp)
 453 04f0 6800B28F 		lw	$18,104($sp)
 454 04f4 6400B18F 		lw	$17,100($sp)
 455 04f8 6000B08F 		lw	$16,96($sp)
 456 04fc 8800BD27 		addiu	$sp,$sp,136
 457 0500 0800E003 		j	$31
 458 0504 00000000 		nop
 459              	
 460              		.set	macro
 461              		.set	reorder
 462              		.end	main
 463              	$LFE0:
 465              		.rdata
 466              		.align	2
 469              	__func__.1715:
 470 0054 6D61696E 		.ascii	"main\000"
 470      00
 471 0059 000000   		.align	2
 474              	__PRETTY_FUNCTION__.1716:
 475 005c 6D61696E 		.ascii	"main\000"
 475      00
 540              	$Letext0:
DEFINED SYMBOLS
                            *ABS*:0000000000000000 apps/ViewFile.c
     /tmp/ccnHxZWa.s:38     .text:0000000000000000 main
     /tmp/ccnHxZWa.s:469    .rodata:0000000000000054 __func__.1715
     /tmp/ccnHxZWa.s:474    .rodata:000000000000005c __PRETTY_FUNCTION__.1716

UNDEFINED SYMBOLS
__gnu_local_gp
DelayMs
PlatformInit
errorMsg
ERRORprint2
__assert_fail
stdout
StackPrintInfo
FileOpenRO
printf
InputCheck
FileRead
fwrite
OutS
