   1              		.section .mdebug.abi32
   2              		.previous
   3              		.gnu_attribute 4, 3
   4              		.abicalls
  12              	$Ltext0:
  13              		.align	2
  14              	$LFB0 = .
  15              		.file 1 "ui/ListCmdr.h"
   0:ui/ListCmdr.h **** #ifndef LISTCMDR_H_
   1:ui/ListCmdr.h **** #define LISTCMDR_H_ 1
   2:ui/ListCmdr.h **** 
   3:ui/ListCmdr.h **** #include "MorseBox.h"
   4:ui/ListCmdr.h **** #include "ListView.h"
   5:ui/ListCmdr.h **** 
   6:ui/ListCmdr.h **** /** Flags for ListCmdr behavior **/
   7:ui/ListCmdr.h **** #define LC_ListOnlyMode 0x1
   8:ui/ListCmdr.h **** #define LC_NoEmptyResult 0x2
   9:ui/ListCmdr.h **** #define LC_NoLeadingSpace 0x4
  10:ui/ListCmdr.h **** 
  11:ui/ListCmdr.h **** typedef struct {
  12:ui/ListCmdr.h ****   unsigned char topRow, nRows; /**< Position on screen **/
  13:ui/ListCmdr.h ****   MorseBox mbox; /**< Morse code/keyboard Input box **/
  14:ui/ListCmdr.h ****   PrefixFilter filter; /**< Data for list filter based on input **/
  15:ui/ListCmdr.h ****   ListView view; /**< Renderer for list **/
  16:ui/ListCmdr.h ****   int finished;
  17:ui/ListCmdr.h ****   int escState;
  18:ui/ListCmdr.h ****   unsigned char flags; /**< No morse box if set **/
  19:ui/ListCmdr.h **** } ListCmdr;
  20:ui/ListCmdr.h **** 
  21:ui/ListCmdr.h **** /** Creates a new List Commander pane based on gen **/
  22:ui/ListCmdr.h **** void ListCmdrInit(ListCmdr *cmdr, ListGen gen, unsigned char topRow, unsigned char nRows, unsigned 
  23:ui/ListCmdr.h **** 
  24:ui/ListCmdr.h **** /** Process a key press.  Returns 1 if keypress consumes, else 0 **/
  25:ui/ListCmdr.h **** void ListCmdrPushEvent(ListCmdr *cmdr, int key);
  26:ui/ListCmdr.h **** 
  27:ui/ListCmdr.h **** static inline int ListCmdrIsFinished(ListCmdr *cmdr) {
  16              		.loc 1 28 0
  17              		.set	nomips16
  18              		.ent	ListCmdrIsFinished
  20              	ListCmdrIsFinished:
  21              		.frame	$fp,8,$31		# vars= 0, regs= 1/0, args= 0, gp= 0
  22              		.mask	0x40000000,-4
  23              		.fmask	0x00000000,0
  24              		.set	noreorder
  25              		.set	nomacro
  26              		
  27 0000 F8FFBD27 		addiu	$sp,$sp,-8
  28              	$LCFI0:
  29 0004 0400BEAF 		sw	$fp,4($sp)
  30              	$LCFI1:
  31 0008 21F0A003 		move	$fp,$sp
  32              	$LCFI2:
  33 000c 0800C4AF 		sw	$4,8($fp)
  28:ui/ListCmdr.h ****   return !!cmdr->finished;
  34              		.loc 1 29 0
  35 0010 0800C28F 		lw	$2,8($fp)
  36 0014 00000000 		nop
  37 0018 8C00428C 		lw	$2,140($2)
  38 001c 00000000 		nop
  39 0020 2B100200 		sltu	$2,$0,$2
  29:ui/ListCmdr.h **** }
  40              		.loc 1 30 0
  41 0024 21E8C003 		move	$sp,$fp
  42 0028 0400BE8F 		lw	$fp,4($sp)
  43 002c 0800BD27 		addiu	$sp,$sp,8
  44 0030 0800E003 		j	$31
  45 0034 00000000 		nop
  46              	
  47              		.set	macro
  48              		.set	reorder
  49              		.end	ListCmdrIsFinished
  50              	$LFE0:
  52              		.align	2
  53              	$LFB2 = .
  54              		.file 2 "bgtree/bgApi.h"
   0:bgtree/bgApi.h **** #ifndef BGAPI_H
   1:bgtree/bgApi.h **** #define BGAPI_H 1
   2:bgtree/bgApi.h **** 
   3:bgtree/bgApi.h **** #include "bgCore.h"
   4:bgtree/bgApi.h **** 
   5:bgtree/bgApi.h **** typedef struct Cursor_ {
   6:bgtree/bgApi.h ****   BAT (*nextFunc)(struct Cursor_ *);
   7:bgtree/bgApi.h ****   union {
   8:bgtree/bgApi.h ****     struct {
   9:bgtree/bgApi.h ****       RowPtr row;
  10:bgtree/bgApi.h ****       KeyT key;
  11:bgtree/bgApi.h ****     } keyInfo;
  12:bgtree/bgApi.h ****     struct {
  13:bgtree/bgApi.h ****       struct Cursor_ *a;
  14:bgtree/bgApi.h ****       struct Cursor_ *b;
  15:bgtree/bgApi.h ****       BAT aLastValue, bLastValue;
  16:bgtree/bgApi.h ****     } binaryInfo;
  17:bgtree/bgApi.h ****     struct {
  18:bgtree/bgApi.h ****       struct Cursor_ *a;
  19:bgtree/bgApi.h ****       BAT lastValue;
  20:bgtree/bgApi.h ****     } uniqueInfo;
  21:bgtree/bgApi.h ****   } u;
  22:bgtree/bgApi.h **** } Cursor;
  23:bgtree/bgApi.h **** 
  24:bgtree/bgApi.h **** /** Allocate and initialize a new BgTree capable of holding
  25:bgtree/bgApi.h ****  * the specified number of items **/
  26:bgtree/bgApi.h **** BgTree TreeCreate(int numItems, void *userData);
  27:bgtree/bgApi.h **** 
  28:bgtree/bgApi.h **** void TreeInit(BgTree *t, void *userData);
  29:bgtree/bgApi.h **** 
  30:bgtree/bgApi.h **** /** Append a key/value pair to the tree **/
  31:bgtree/bgApi.h **** void TreeAppend(BgTree tree,  KeyT key, BAT value);
  32:bgtree/bgApi.h **** 
  33:bgtree/bgApi.h **** /** Calculate the size in bytes of storage space required to
  34:bgtree/bgApi.h ****  * hold a tree containing the specified number of items.  Use
  35:bgtree/bgApi.h ****  * this for pre-allocation of space if required **/
  36:bgtree/bgApi.h **** int CalcTreeSize(int numItems);
  37:bgtree/bgApi.h **** 
  38:bgtree/bgApi.h **** /** Returns a Cursor to all items in table with key **/
  39:bgtree/bgApi.h **** Cursor SelectKey(BgTree table, KeyT key);
  40:bgtree/bgApi.h **** 
  41:bgtree/bgApi.h **** /** Returns a Cursor to all items in table **/
  42:bgtree/bgApi.h **** Cursor SelectAll(BgTree table);
  43:bgtree/bgApi.h **** 
  44:bgtree/bgApi.h **** /** Returns a Cursor to item which matches with key, and all
  45:bgtree/bgApi.h ****  * items following with consecutive keys **/
  46:bgtree/bgApi.h **** Cursor SelectConsecutiveKeys(BgTree table, KeyT key);
  47:bgtree/bgApi.h **** 
  48:bgtree/bgApi.h **** /** Creates a new Cursor which iterates over all items in
  49:bgtree/bgApi.h ****  * either Cursor a or b.  Note: This does not preserve order. **/
  50:bgtree/bgApi.h **** Cursor Union(Cursor *a, Cursor *b);
  51:bgtree/bgApi.h **** /** Creates a new Cursor which iterates over all items which are BOTH in a and b. **/
  52:bgtree/bgApi.h **** Cursor Intersection(Cursor *a, Cursor *b);
  53:bgtree/bgApi.h **** /** TODO: Not Implemented **/
  54:bgtree/bgApi.h **** Cursor Unique(Cursor *a);
  55:bgtree/bgApi.h **** 
  56:bgtree/bgApi.h **** /** Get the current value from cursor and advance **/
  57:bgtree/bgApi.h **** BAT CursorNext(Cursor *c);
  58:bgtree/bgApi.h **** 
  59:bgtree/bgApi.h **** /** Duplicate a cursor.  Will call CursorDestroy(dest) first. **/
  60:bgtree/bgApi.h **** void CursorDup(Cursor *dest, Cursor *src);
  61:bgtree/bgApi.h **** 
  62:bgtree/bgApi.h **** /** Peek at the cursor's next value without incrementing the cursor.  Uses CursorDup() to make a co
  63:bgtree/bgApi.h **** BAT CursorPeek(Cursor *c);
  64:bgtree/bgApi.h **** 
  65:bgtree/bgApi.h **** 
  66:bgtree/bgApi.h **** /** Returns true if cursor is invalid **/ 
  67:bgtree/bgApi.h **** static inline int CursorIsInvalid(Cursor *c) {
  68:bgtree/bgApi.h ****   return !c->nextFunc;
  69:bgtree/bgApi.h **** }
  70:bgtree/bgApi.h **** 
  71:bgtree/bgApi.h **** /** Returns an invalid cursor **/
  72:bgtree/bgApi.h **** static inline Cursor CursorCreateInvalid() {
  55              		.loc 2 73 0
  56              		.set	nomips16
  57              		.ent	CursorCreateInvalid
  59              	CursorCreateInvalid:
  60              		.frame	$fp,40,$31		# vars= 24, regs= 1/0, args= 0, gp= 8
  61              		.mask	0x40000000,-4
  62              		.fmask	0x00000000,0
  63              		.set	noreorder
  64              		.set	nomacro
  65              		
  66 0038 D8FFBD27 		addiu	$sp,$sp,-40
  67              	$LCFI3:
  68 003c 2400BEAF 		sw	$fp,36($sp)
  69              	$LCFI4:
  70 0040 21F0A003 		move	$fp,$sp
  71              	$LCFI5:
  72 0044 21108000 		move	$2,$4
  73:bgtree/bgApi.h ****   Cursor c;
  74:bgtree/bgApi.h ****   c.nextFunc = 0x0;
  73              		.loc 2 75 0
  74 0048 0800C0AF 		sw	$0,8($fp)
  75:bgtree/bgApi.h ****   return c;
  75              		.loc 2 76 0
  76 004c 0800C88F 		lw	$8,8($fp)
  77 0050 0C00C78F 		lw	$7,12($fp)
  78 0054 1000C68F 		lw	$6,16($fp)
  79 0058 1400C58F 		lw	$5,20($fp)
  80 005c 1800C48F 		lw	$4,24($fp)
  81 0060 1C00C38F 		lw	$3,28($fp)
  82 0064 000048AC 		sw	$8,0($2)
  83 0068 040047AC 		sw	$7,4($2)
  84 006c 080046AC 		sw	$6,8($2)
  85 0070 0C0045AC 		sw	$5,12($2)
  86 0074 100044AC 		sw	$4,16($2)
  87 0078 140043AC 		sw	$3,20($2)
  76:bgtree/bgApi.h **** }
  88              		.loc 2 77 0
  89 007c 21E8C003 		move	$sp,$fp
  90 0080 2400BE8F 		lw	$fp,36($sp)
  91 0084 2800BD27 		addiu	$sp,$sp,40
  92 0088 0800E003 		j	$31
  93 008c 00000000 		nop
  94              	
  95              		.set	macro
  96              		.set	reorder
  97              		.end	CursorCreateInvalid
  98              	$LFE2:
 100              		.rdata
 101              		.align	2
 102              	$LC0:
 103 0000 7365632E 		.ascii	"sec.bgt\000"
 103      62677400 
 104              		.align	2
 105              	$LC1:
 106 0008 7365632E 		.ascii	"sec.bgb\000"
 106      62676200 
 107              		.align	2
 108              	$LC2:
 109 0010 7072652E 		.ascii	"pre.bgt\000"
 109      62677400 
 110              		.text
 111              		.align	2
 112              		.globl	WikiAppInit
 113              	$LFB3 = .
 114              		.file 3 "apps/WikiApp.c"
   0:apps/WikiApp.c **** #include "WikiApp.h"
   1:apps/WikiApp.c **** #include "vt52.h"
   2:apps/WikiApp.c **** #include <string.h>
   3:apps/WikiApp.c **** #include <ctype.h> // toupper
   4:apps/WikiApp.c **** #include "crc32.h"
   5:apps/WikiApp.c **** #include "bgUtil.h"
   6:apps/WikiApp.c **** #include "bgUtil2.h"
   7:apps/WikiApp.c **** #include "WikiUtil.h"
   8:apps/WikiApp.c **** 
   9:apps/WikiApp.c **** void WikiAppInit(WikiApp *wa) {
 115              		.loc 3 10 0
 116              		.set	nomips16
 117              		.ent	WikiAppInit
 119              	WikiAppInit:
 120              		.frame	$fp,48,$31		# vars= 8, regs= 2/0, args= 24, gp= 8
 121              		.mask	0xc0000000,-4
 122              		.fmask	0x00000000,0
 123              		.set	noreorder
 124              		.set	nomacro
 125              		
 126 0090 D0FFBD27 		addiu	$sp,$sp,-48
 127              	$LCFI6:
 128 0094 2C00BFAF 		sw	$31,44($sp)
 129              	$LCFI7:
 130 0098 2800BEAF 		sw	$fp,40($sp)
 131              	$LCFI8:
 132 009c 21F0A003 		move	$fp,$sp
 133              	$LCFI9:
 134 00a0 00001C3C 		lui	$28,%hi(__gnu_local_gp)
 135 00a4 00009C27 		addiu	$28,$28,%lo(__gnu_local_gp)
 136 00a8 1800BCAF 		.cprestore	24
 137 00ac 3000C4AF 		sw	$4,48($fp)
  10:apps/WikiApp.c ****   const unsigned char nRows=17;
 138              		.loc 3 11 0
 139 00b0 11000224 		li	$2,17			# 0x11
 140 00b4 2000C2A3 		sb	$2,32($fp)
  11:apps/WikiApp.c ****   memset(wa, 0, sizeof(WikiApp));
 141              		.loc 3 12 0
 142 00b8 3000C48F 		lw	$4,48($fp)
 143 00bc 21280000 		move	$5,$0
 144 00c0 54020624 		li	$6,596			# 0x254
 145 00c4 0000828F 		lw	$2,%call16(memset)($28)
 146 00c8 00000000 		nop
 147 00cc 21C84000 		move	$25,$2
 148 00d0 09F82003 		jalr	$25
 149 00d4 00000000 		nop
 150              	
 151 00d8 1800DC8F 		lw	$28,24($fp)
  12:apps/WikiApp.c **** 
  13:apps/WikiApp.c ****   /* Page Context Init */
  14:apps/WikiApp.c ****   wa->pageContext.tableFname = "sec.bgt";
 152              		.loc 3 15 0
 153 00dc 3000C28F 		lw	$2,48($fp)
 154 00e0 0000033C 		lui	$3,%hi($LC0)
 155 00e4 00006324 		addiu	$3,$3,%lo($LC0)
 156 00e8 040043AC 		sw	$3,4($2)
  15:apps/WikiApp.c ****   wa->pageContext.blobFname  = "sec.bgb";
 157              		.loc 3 16 0
 158 00ec 3000C28F 		lw	$2,48($fp)
 159 00f0 0000033C 		lui	$3,%hi($LC1)
 160 00f4 08006324 		addiu	$3,$3,%lo($LC1)
 161 00f8 080043AC 		sw	$3,8($2)
  16:apps/WikiApp.c ****   wa->pageContext.fileStateVersion = -1;
 162              		.loc 3 17 0
 163 00fc 3000C28F 		lw	$2,48($fp)
 164 0100 FFFF0324 		li	$3,-1			# 0xffffffffffffffff
 165 0104 000043AC 		sw	$3,0($2)
  17:apps/WikiApp.c **** 
  18:apps/WikiApp.c ****   /* Title Prefix Table */
  19:apps/WikiApp.c ****   wa->prefixContext.tableFname = "pre.bgt";
 166              		.loc 3 20 0
 167 0108 3000C28F 		lw	$2,48($fp)
 168 010c 0000033C 		lui	$3,%hi($LC2)
 169 0110 10006324 		addiu	$3,$3,%lo($LC2)
 170 0114 100043AC 		sw	$3,16($2)
  20:apps/WikiApp.c ****   wa->prefixContext.fileStateVersion = -1;
 171              		.loc 3 21 0
 172 0118 3000C28F 		lw	$2,48($fp)
 173 011c FFFF0324 		li	$3,-1			# 0xffffffffffffffff
 174 0120 0C0043AC 		sw	$3,12($2)
  21:apps/WikiApp.c **** 
  22:apps/WikiApp.c ****   wa->state = WAGlobalSearch;
 175              		.loc 3 23 0
 176 0124 3000C28F 		lw	$2,48($fp)
 177 0128 00000000 		nop
 178 012c 500240AC 		sw	$0,592($2)
  23:apps/WikiApp.c **** 
  24:apps/WikiApp.c ****   SearchViewInit(&wa->search, &wa->pageContext, &wa->prefixContext, 1, nRows);
 179              		.loc 3 25 0
 180 0130 3000C28F 		lw	$2,48($fp)
 181 0134 00000000 		nop
 182 0138 48014424 		addiu	$4,$2,328
 183 013c 3000C38F 		lw	$3,48($fp)
 184 0140 3000C28F 		lw	$2,48($fp)
 185 0144 00000000 		nop
 186 0148 0C004224 		addiu	$2,$2,12
 187 014c 2000C593 		lbu	$5,32($fp)
 188 0150 00000000 		nop
 189 0154 1000A5AF 		sw	$5,16($sp)
 190 0158 21286000 		move	$5,$3
 191 015c 21304000 		move	$6,$2
 192 0160 01000724 		li	$7,1			# 0x1
 193 0164 0000828F 		lw	$2,%call16(SearchViewInit)($28)
 194 0168 00000000 		nop
 195 016c 21C84000 		move	$25,$2
 196 0170 09F82003 		jalr	$25
 197 0174 00000000 		nop
 198              	
 199 0178 1800DC8F 		lw	$28,24($fp)
  25:apps/WikiApp.c **** }
 200              		.loc 3 26 0
 201 017c 21E8C003 		move	$sp,$fp
 202 0180 2C00BF8F 		lw	$31,44($sp)
 203 0184 2800BE8F 		lw	$fp,40($sp)
 204 0188 3000BD27 		addiu	$sp,$sp,48
 205 018c 0800E003 		j	$31
 206 0190 00000000 		nop
 207              	
 208              		.set	macro
 209              		.set	reorder
 210              		.end	WikiAppInit
 211              	$LFE3:
 213              		.align	2
 214              		.globl	WikiAppSetTitle
 215              	$LFB4 = .
  26:apps/WikiApp.c **** 
  27:apps/WikiApp.c **** char WikiAppSetTitle(WikiApp *wa, const char *title) {
 216              		.loc 3 28 0
 217              		.set	nomips16
 218              		.ent	WikiAppSetTitle
 220              	WikiAppSetTitle:
 221              		.frame	$fp,48,$31		# vars= 8, regs= 2/0, args= 24, gp= 8
 222              		.mask	0xc0000000,-4
 223              		.fmask	0x00000000,0
 224              		.set	noreorder
 225              		.set	nomacro
 226              		
 227 0194 D0FFBD27 		addiu	$sp,$sp,-48
 228              	$LCFI10:
 229 0198 2C00BFAF 		sw	$31,44($sp)
 230              	$LCFI11:
 231 019c 2800BEAF 		sw	$fp,40($sp)
 232              	$LCFI12:
 233 01a0 21F0A003 		move	$fp,$sp
 234              	$LCFI13:
 235 01a4 00001C3C 		lui	$28,%hi(__gnu_local_gp)
 236 01a8 00009C27 		addiu	$28,$28,%lo(__gnu_local_gp)
 237 01ac 1800BCAF 		.cprestore	24
 238 01b0 3000C4AF 		sw	$4,48($fp)
 239 01b4 3400C5AF 		sw	$5,52($fp)
  28:apps/WikiApp.c ****   /* Hash title string */
  29:apps/WikiApp.c ****   KeyT key = CalcUpperCRC(title);
 240              		.loc 3 30 0
 241 01b8 3400C48F 		lw	$4,52($fp)
 242 01bc 0000828F 		lw	$2,%call16(CalcUpperCRC)($28)
 243 01c0 00000000 		nop
 244 01c4 21C84000 		move	$25,$2
 245 01c8 09F82003 		jalr	$25
 246 01cc 00000000 		nop
 247              	
 248 01d0 1800DC8F 		lw	$28,24($fp)
 249 01d4 2000C2AF 		sw	$2,32($fp)
  30:apps/WikiApp.c ****   /* Perform search for title hash */
  31:apps/WikiApp.c ****   TocInit(&wa->toc, key, &wa->pageContext, wa->search.searchCmdr.topRow, wa->search.searchCmdr.nRow
 250              		.loc 3 32 0
 251 01d8 3000C28F 		lw	$2,48($fp)
 252 01dc 00000000 		nop
 253 01e0 18004424 		addiu	$4,$2,24
 254 01e4 3000C38F 		lw	$3,48($fp)
 255 01e8 3000C28F 		lw	$2,48($fp)
 256 01ec 00000000 		nop
 257 01f0 58014290 		lbu	$2,344($2)
 258 01f4 3000C58F 		lw	$5,48($fp)
 259 01f8 00000000 		nop
 260 01fc 5901A590 		lbu	$5,345($5)
 261 0200 00000000 		nop
 262 0204 1000A5AF 		sw	$5,16($sp)
 263 0208 2000C58F 		lw	$5,32($fp)
 264 020c 21306000 		move	$6,$3
 265 0210 21384000 		move	$7,$2
 266 0214 0000828F 		lw	$2,%call16(TocInit)($28)
 267 0218 00000000 		nop
 268 021c 21C84000 		move	$25,$2
 269 0220 09F82003 		jalr	$25
 270 0224 00000000 		nop
 271              	
 272 0228 1800DC8F 		lw	$28,24($fp)
  32:apps/WikiApp.c ****   // Notifty List layer that content has been modified
  33:apps/WikiApp.c ****   ListGenModified(&wa->search.searchCmdr.view.gen);
 273              		.loc 3 34 0
 274 022c 3000C28F 		lw	$2,48($fp)
 275 0230 00000000 		nop
 276 0234 B0014224 		addiu	$2,$2,432
 277 0238 21204000 		move	$4,$2
 278 023c 0000828F 		lw	$2,%call16(ListGenModified)($28)
 279 0240 00000000 		nop
 280 0244 21C84000 		move	$25,$2
 281 0248 09F82003 		jalr	$25
 282 024c 00000000 		nop
 283              	
 284 0250 1800DC8F 		lw	$28,24($fp)
  34:apps/WikiApp.c ****   if (CursorPeek(&wa->toc.startCur) == BAInvalid)
 285              		.loc 3 35 0
 286 0254 3000C28F 		lw	$2,48($fp)
 287 0258 00000000 		nop
 288 025c BC004224 		addiu	$2,$2,188
 289 0260 21204000 		move	$4,$2
 290 0264 0000828F 		lw	$2,%call16(CursorPeek)($28)
 291 0268 00000000 		nop
 292 026c 21C84000 		move	$25,$2
 293 0270 09F82003 		jalr	$25
 294 0274 00000000 		nop
 295              	
 296 0278 1800DC8F 		lw	$28,24($fp)
 297 027c 21184000 		move	$3,$2
 298 0280 FFFF0224 		li	$2,-1			# 0xffffffffffffffff
 299 0284 04006214 		bne	$3,$2,$L8
 300 0288 00000000 		nop
 301              	
  35:apps/WikiApp.c ****     return 0;
 302              		.loc 3 36 0
 303 028c 21100000 		move	$2,$0
 304 0290 02000010 		b	$L9
 305 0294 00000000 		nop
 306              	
 307              	$L8:
  36:apps/WikiApp.c ****   return 1;
 308              		.loc 3 37 0
 309 0298 01000224 		li	$2,1			# 0x1
 310              	$L9:
  37:apps/WikiApp.c **** }
 311              		.loc 3 38 0
 312 029c 21E8C003 		move	$sp,$fp
 313 02a0 2C00BF8F 		lw	$31,44($sp)
 314 02a4 2800BE8F 		lw	$fp,40($sp)
 315 02a8 3000BD27 		addiu	$sp,$sp,48
 316 02ac 0800E003 		j	$31
 317 02b0 00000000 		nop
 318              	
 319              		.set	macro
 320              		.set	reorder
 321              		.end	WikiAppSetTitle
 322              	$LFE4:
 324              		.rdata
 325              		.align	2
 326              	$LC3:
 327 0018 4641494C 		.ascii	"FAILED TO MATCH %s\012\000"
 327      45442054 
 327      4F204D41 
 327      54434820 
 327      25730A00 
 328              		.text
 329              		.align	2
 330              		.globl	WikiAppSetText
 331              	$LFB5 = .
  38:apps/WikiApp.c **** 
  39:apps/WikiApp.c **** char WikiAppSetText(WikiApp *wa, const char *section) {
 332              		.loc 3 40 0
 333              		.set	nomips16
 334              		.ent	WikiAppSetText
 336              	WikiAppSetText:
 337              		.frame	$fp,112,$31		# vars= 72, regs= 2/0, args= 24, gp= 8
 338              		.mask	0xc0000000,-4
 339              		.fmask	0x00000000,0
 340              		.set	noreorder
 341              		.set	nomacro
 342              		
 343 02b4 90FFBD27 		addiu	$sp,$sp,-112
 344              	$LCFI14:
 345 02b8 6C00BFAF 		sw	$31,108($sp)
 346              	$LCFI15:
 347 02bc 6800BEAF 		sw	$fp,104($sp)
 348              	$LCFI16:
 349 02c0 21F0A003 		move	$fp,$sp
 350              	$LCFI17:
 351 02c4 00001C3C 		lui	$28,%hi(__gnu_local_gp)
 352 02c8 00009C27 		addiu	$28,$28,%lo(__gnu_local_gp)
 353 02cc 1800BCAF 		.cprestore	24
 354 02d0 7000C4AF 		sw	$4,112($fp)
 355 02d4 7400C5AF 		sw	$5,116($fp)
  40:apps/WikiApp.c ****   /* Find actual section from section title */
  41:apps/WikiApp.c ****   char b[MORSEBOX_MAX];
  42:apps/WikiApp.c ****   
  43:apps/WikiApp.c ****   /* Find matching cursor */
  44:apps/WikiApp.c ****   ListGenRestart(&wa->toc.cmdr.filter.gen);
 356              		.loc 3 45 0
 357 02d8 7000C28F 		lw	$2,112($fp)
 358 02dc 00000000 		nop
 359 02e0 60004224 		addiu	$2,$2,96
 360 02e4 21204000 		move	$4,$2
 361 02e8 0000828F 		lw	$2,%call16(ListGenRestart)($28)
 362 02ec 00000000 		nop
 363 02f0 21C84000 		move	$25,$2
 364 02f4 09F82003 		jalr	$25
 365 02f8 00000000 		nop
 366              	
 367 02fc 1800DC8F 		lw	$28,24($fp)
  45:apps/WikiApp.c ****   Cursor cur = CursorCreateInvalid();
 368              		.loc 3 46 0
 369 0300 4C00C227 		addiu	$2,$fp,76
 370 0304 21204000 		move	$4,$2
 371              		.option	pic0
 372 0308 0E00000C 		jal	CursorCreateInvalid
 373 030c 00000000 		nop
 374              	
 375              		.option	pic2
 376 0310 1800DC8F 		lw	$28,24($fp)
 377              	$L13:
  46:apps/WikiApp.c ****   char moreToCome;
  47:apps/WikiApp.c ****   do {
  48:apps/WikiApp.c ****     //CursorDup(&cur, &wa->toc.cur); // save one behind
  49:apps/WikiApp.c ****     // tocCmdr.filter.gen will increment tocCur
  50:apps/WikiApp.c ****     moreToCome = ListGenNext(&wa->toc.cmdr.filter.gen, b, MORSEBOX_MAX);
 378              		.loc 3 51 0
 379 0314 7000C28F 		lw	$2,112($fp)
 380 0318 00000000 		nop
 381 031c 60004324 		addiu	$3,$2,96
 382 0320 2400C227 		addiu	$2,$fp,36
 383 0324 21206000 		move	$4,$3
 384 0328 21284000 		move	$5,$2
 385 032c 28000624 		li	$6,40			# 0x28
 386 0330 0000828F 		lw	$2,%call16(ListGenNext)($28)
 387 0334 00000000 		nop
 388 0338 21C84000 		move	$25,$2
 389 033c 09F82003 		jalr	$25
 390 0340 00000000 		nop
 391              	
 392 0344 1800DC8F 		lw	$28,24($fp)
 393 0348 2000C2A3 		sb	$2,32($fp)
  51:apps/WikiApp.c ****   } while (moreToCome && strncmp(b, section, MORSEBOX_MAX));
 394              		.loc 3 52 0
 395 034c 2000C283 		lb	$2,32($fp)
 396 0350 00000000 		nop
 397 0354 0D004010 		beq	$2,$0,$L12
 398 0358 00000000 		nop
 399              	
 400 035c 2400C227 		addiu	$2,$fp,36
 401 0360 21204000 		move	$4,$2
 402 0364 7400C58F 		lw	$5,116($fp)
 403 0368 28000624 		li	$6,40			# 0x28
 404 036c 0000828F 		lw	$2,%call16(strncmp)($28)
 405 0370 00000000 		nop
 406 0374 21C84000 		move	$25,$2
 407 0378 09F82003 		jalr	$25
 408 037c 00000000 		nop
 409              	
 410 0380 1800DC8F 		lw	$28,24($fp)
 411 0384 E3FF4014 		bne	$2,$0,$L13
 412 0388 00000000 		nop
 413              	
 414              	$L12:
  52:apps/WikiApp.c ****   if (!moreToCome) {
 415              		.loc 3 53 0
 416 038c 2000C283 		lb	$2,32($fp)
 417 0390 00000000 		nop
 418 0394 0F004014 		bne	$2,$0,$L14
 419 0398 00000000 		nop
 420              	
  53:apps/WikiApp.c ****     printf_P(PSTR("FAILED TO MATCH %s\n"),b);
 421              		.loc 3 54 0
 422 039c 0000023C 		lui	$2,%hi($LC3)
 423 03a0 18004324 		addiu	$3,$2,%lo($LC3)
 424 03a4 2400C227 		addiu	$2,$fp,36
 425 03a8 21206000 		move	$4,$3
 426 03ac 21284000 		move	$5,$2
 427 03b0 0000828F 		lw	$2,%call16(printf)($28)
 428 03b4 00000000 		nop
 429 03b8 21C84000 		move	$25,$2
 430 03bc 09F82003 		jalr	$25
 431 03c0 00000000 		nop
 432              	
 433 03c4 1800DC8F 		lw	$28,24($fp)
  54:apps/WikiApp.c ****     return 0;
 434              		.loc 3 55 0
 435 03c8 21100000 		move	$2,$0
 436 03cc 1F000010 		b	$L15
 437 03d0 00000000 		nop
 438              	
 439              	$L14:
  55:apps/WikiApp.c ****   }
  56:apps/WikiApp.c **** 
  57:apps/WikiApp.c ****   /* Extract text location from cursor */
  58:apps/WikiApp.c ****   SectionViewInit(&wa->section, &tocLastCur, &wa->pageContext,wa->search.searchCmdr.topRow, wa->sea
 440              		.loc 3 59 0
 441 03d4 7000C28F 		lw	$2,112($fp)
 442 03d8 00000000 		nop
 443 03dc EC004424 		addiu	$4,$2,236
 444 03e0 7000C38F 		lw	$3,112($fp)
 445 03e4 7000C28F 		lw	$2,112($fp)
 446 03e8 00000000 		nop
 447 03ec 58014290 		lbu	$2,344($2)
 448 03f0 7000C58F 		lw	$5,112($fp)
 449 03f4 00000000 		nop
 450 03f8 5901A590 		lbu	$5,345($5)
 451 03fc 00000000 		nop
 452 0400 1000A5AF 		sw	$5,16($sp)
 453 0404 0000858F 		lw	$5,%got(tocLastCur)($28)
 454 0408 21306000 		move	$6,$3
 455 040c 21384000 		move	$7,$2
 456 0410 0000828F 		lw	$2,%call16(SectionViewInit)($28)
 457 0414 00000000 		nop
 458 0418 21C84000 		move	$25,$2
 459 041c 09F82003 		jalr	$25
 460 0420 00000000 		nop
 461              	
 462 0424 1800DC8F 		lw	$28,24($fp)
  59:apps/WikiApp.c ****   CursorDestroy(&cur);
 463              		.loc 3 60 0
 464 0428 4C00C227 		addiu	$2,$fp,76
 465 042c 21204000 		move	$4,$2
 466 0430 0000828F 		lw	$2,%call16(CursorDestroy)($28)
 467 0434 00000000 		nop
 468 0438 21C84000 		move	$25,$2
 469 043c 09F82003 		jalr	$25
 470 0440 00000000 		nop
 471              	
 472 0444 1800DC8F 		lw	$28,24($fp)
  60:apps/WikiApp.c ****   return 1;
 473              		.loc 3 61 0
 474 0448 01000224 		li	$2,1			# 0x1
 475              	$L15:
  61:apps/WikiApp.c **** }
 476              		.loc 3 62 0
 477 044c 21E8C003 		move	$sp,$fp
 478 0450 6C00BF8F 		lw	$31,108($sp)
 479 0454 6800BE8F 		lw	$fp,104($sp)
 480 0458 7000BD27 		addiu	$sp,$sp,112
 481 045c 0800E003 		j	$31
 482 0460 00000000 		nop
 483              	
 484              		.set	macro
 485              		.set	reorder
 486              		.end	WikiAppSetText
 487              	$LFE5:
 489              		.rdata
 490              		.align	2
 491              	$LC4:
 492 002c 1B5B376C 		.ascii	"\033[7l\000"
 492      00
 493 0031 000000   		.align	2
 494              	$LC5:
 495 0034 1B5B481B 		.ascii	"\033[H\033[2K\015\000"
 495      5B324B0D 
 495      00
 496 003d 000000   		.align	2
 497              	$LC6:
 498 0040 20202020 		.ascii	"     -=[ Title Search ]=-\000"
 498      202D3D5B 
 498      20546974 
 498      6C652053 
 498      65617263 
 499 005a 0000     		.align	2
 500              	$LC7:
 501 005c 2D3D5B20 		.ascii	"-=[ %s Table of Contents ]=-\000"
 501      25732054 
 501      61626C65 
 501      206F6620 
 501      436F6E74 
 502 0079 000000   		.align	2
 503              	$LC8:
 504 007c 20202020 		.ascii	"     -=[ %s Article Text ]=-\000"
 504      202D3D5B 
 504      20257320 
 504      41727469 
 504      636C6520 
 505              		.text
 506              		.align	2
 507              		.globl	WikiAppDraw
 508              	$LFB6 = .
  62:apps/WikiApp.c **** 
  63:apps/WikiApp.c **** char WikiAppDraw(WikiApp *wa) {
 509              		.loc 3 64 0
 510              		.set	nomips16
 511              		.ent	WikiAppDraw
 513              	WikiAppDraw:
 514              		.frame	$fp,40,$31		# vars= 0, regs= 3/0, args= 16, gp= 8
 515              		.mask	0xc0010000,-4
 516              		.fmask	0x00000000,0
 517              		.set	noreorder
 518              		.set	nomacro
 519              		
 520 0464 D8FFBD27 		addiu	$sp,$sp,-40
 521              	$LCFI18:
 522 0468 2400BFAF 		sw	$31,36($sp)
 523              	$LCFI19:
 524 046c 2000BEAF 		sw	$fp,32($sp)
 525              	$LCFI20:
 526 0470 1C00B0AF 		sw	$16,28($sp)
 527              	$LCFI21:
 528 0474 21F0A003 		move	$fp,$sp
 529              	$LCFI22:
 530 0478 00001C3C 		lui	$28,%hi(__gnu_local_gp)
 531 047c 00009C27 		addiu	$28,$28,%lo(__gnu_local_gp)
 532 0480 1000BCAF 		.cprestore	16
 533 0484 2800C4AF 		sw	$4,40($fp)
  64:apps/WikiApp.c ****   //fprintf(stdout, VERASE_SCR);
  65:apps/WikiApp.c ****   printf(VDISABLE_LINE_WRAP);
 534              		.loc 3 66 0
 535 0488 0000023C 		lui	$2,%hi($LC4)
 536 048c 2C004224 		addiu	$2,$2,%lo($LC4)
 537 0490 21204000 		move	$4,$2
 538 0494 0000828F 		lw	$2,%call16(printf)($28)
 539 0498 00000000 		nop
 540 049c 21C84000 		move	$25,$2
 541 04a0 09F82003 		jalr	$25
 542 04a4 00000000 		nop
 543              	
 544 04a8 1000DC8F 		lw	$28,16($fp)
  66:apps/WikiApp.c ****   if (wa->state == WAGlobalSearch) {
 545              		.loc 3 67 0
 546 04ac 2800C28F 		lw	$2,40($fp)
 547 04b0 00000000 		nop
 548 04b4 5002428C 		lw	$2,592($2)
 549 04b8 00000000 		nop
 550 04bc 21004014 		bne	$2,$0,$L18
 551 04c0 00000000 		nop
 552              	
  67:apps/WikiApp.c ****     printf(VHOME VERASE_LINE_CUR);
 553              		.loc 3 68 0
 554 04c4 0000023C 		lui	$2,%hi($LC5)
 555 04c8 34004224 		addiu	$2,$2,%lo($LC5)
 556 04cc 21204000 		move	$4,$2
 557 04d0 0000828F 		lw	$2,%call16(printf)($28)
 558 04d4 00000000 		nop
 559 04d8 21C84000 		move	$25,$2
 560 04dc 09F82003 		jalr	$25
 561 04e0 00000000 		nop
 562              	
 563 04e4 1000DC8F 		lw	$28,16($fp)
  68:apps/WikiApp.c ****     printf_P(PSTR("     -=[ Title Search ]=-"));
 564              		.loc 3 69 0
 565 04e8 0000023C 		lui	$2,%hi($LC6)
 566 04ec 40004224 		addiu	$2,$2,%lo($LC6)
 567 04f0 21204000 		move	$4,$2
 568 04f4 0000828F 		lw	$2,%call16(printf)($28)
 569 04f8 00000000 		nop
 570 04fc 21C84000 		move	$25,$2
 571 0500 09F82003 		jalr	$25
 572 0504 00000000 		nop
 573              	
 574 0508 1000DC8F 		lw	$28,16($fp)
  69:apps/WikiApp.c ****     return ListCmdrDraw(&wa->search.searchCmdr);
 575              		.loc 3 70 0
 576 050c 2800C28F 		lw	$2,40($fp)
 577 0510 00000000 		nop
 578 0514 58014224 		addiu	$2,$2,344
 579 0518 21204000 		move	$4,$2
 580 051c 0000828F 		lw	$2,%call16(ListCmdrDraw)($28)
 581 0520 00000000 		nop
 582 0524 21C84000 		move	$25,$2
 583 0528 09F82003 		jalr	$25
 584 052c 00000000 		nop
 585              	
 586 0530 1000DC8F 		lw	$28,16($fp)
 587 0534 00160200 		sll	$2,$2,24
 588 0538 03160200 		sra	$2,$2,24
 589 053c 62000010 		b	$L19
 590 0540 00000000 		nop
 591              	
 592              	$L18:
  70:apps/WikiApp.c ****   } else if (wa->state == WATocList) {
 593              		.loc 3 71 0
 594 0544 2800C28F 		lw	$2,40($fp)
 595 0548 00000000 		nop
 596 054c 5002438C 		lw	$3,592($2)
 597 0550 01000224 		li	$2,1			# 0x1
 598 0554 2C006214 		bne	$3,$2,$L20
 599 0558 00000000 		nop
 600              	
  71:apps/WikiApp.c ****     printf(VHOME VERASE_LINE_CUR);
 601              		.loc 3 72 0
 602 055c 0000023C 		lui	$2,%hi($LC5)
 603 0560 34004224 		addiu	$2,$2,%lo($LC5)
 604 0564 21204000 		move	$4,$2
 605 0568 0000828F 		lw	$2,%call16(printf)($28)
 606 056c 00000000 		nop
 607 0570 21C84000 		move	$25,$2
 608 0574 09F82003 		jalr	$25
 609 0578 00000000 		nop
 610              	
 611 057c 1000DC8F 		lw	$28,16($fp)
  72:apps/WikiApp.c ****     printf_P(PSTR("-=[ %s Table of Contents ]=-"), ListCmdrGetValue(&wa->search.searchCmdr));
 612              		.loc 3 73 0
 613 0580 0000023C 		lui	$2,%hi($LC7)
 614 0584 5C005024 		addiu	$16,$2,%lo($LC7)
 615 0588 2800C28F 		lw	$2,40($fp)
 616 058c 00000000 		nop
 617 0590 58014224 		addiu	$2,$2,344
 618 0594 21204000 		move	$4,$2
 619 0598 0000828F 		lw	$2,%call16(ListCmdrGetValue)($28)
 620 059c 00000000 		nop
 621 05a0 21C84000 		move	$25,$2
 622 05a4 09F82003 		jalr	$25
 623 05a8 00000000 		nop
 624              	
 625 05ac 1000DC8F 		lw	$28,16($fp)
 626 05b0 21200002 		move	$4,$16
 627 05b4 21284000 		move	$5,$2
 628 05b8 0000828F 		lw	$2,%call16(printf)($28)
 629 05bc 00000000 		nop
 630 05c0 21C84000 		move	$25,$2
 631 05c4 09F82003 		jalr	$25
 632 05c8 00000000 		nop
 633              	
 634 05cc 1000DC8F 		lw	$28,16($fp)
  73:apps/WikiApp.c ****     return ListCmdrDraw(&wa->toc.cmdr);
 635              		.loc 3 74 0
 636 05d0 2800C28F 		lw	$2,40($fp)
 637 05d4 00000000 		nop
 638 05d8 24004224 		addiu	$2,$2,36
 639 05dc 21204000 		move	$4,$2
 640 05e0 0000828F 		lw	$2,%call16(ListCmdrDraw)($28)
 641 05e4 00000000 		nop
 642 05e8 21C84000 		move	$25,$2
 643 05ec 09F82003 		jalr	$25
 644 05f0 00000000 		nop
 645              	
 646 05f4 1000DC8F 		lw	$28,16($fp)
 647 05f8 00160200 		sll	$2,$2,24
 648 05fc 03160200 		sra	$2,$2,24
 649 0600 31000010 		b	$L19
 650 0604 00000000 		nop
 651              	
 652              	$L20:
  74:apps/WikiApp.c ****   } else if (wa->state == WATextViewer) {
 653              		.loc 3 75 0
 654 0608 2800C28F 		lw	$2,40($fp)
 655 060c 00000000 		nop
 656 0610 5002438C 		lw	$3,592($2)
 657 0614 02000224 		li	$2,2			# 0x2
 658 0618 2A006214 		bne	$3,$2,$L21
 659 061c 00000000 		nop
 660              	
  75:apps/WikiApp.c ****     printf(VHOME VERASE_LINE_CUR);
 661              		.loc 3 76 0
 662 0620 0000023C 		lui	$2,%hi($LC5)
 663 0624 34004224 		addiu	$2,$2,%lo($LC5)
 664 0628 21204000 		move	$4,$2
 665 062c 0000828F 		lw	$2,%call16(printf)($28)
 666 0630 00000000 		nop
 667 0634 21C84000 		move	$25,$2
 668 0638 09F82003 		jalr	$25
 669 063c 00000000 		nop
 670              	
 671 0640 1000DC8F 		lw	$28,16($fp)
  76:apps/WikiApp.c ****     printf_P(PSTR("     -=[ %s Article Text ]=-"), ListCmdrGetValue(&wa->search.searchCmdr));
 672              		.loc 3 77 0
 673 0644 0000023C 		lui	$2,%hi($LC8)
 674 0648 7C005024 		addiu	$16,$2,%lo($LC8)
 675 064c 2800C28F 		lw	$2,40($fp)
 676 0650 00000000 		nop
 677 0654 58014224 		addiu	$2,$2,344
 678 0658 21204000 		move	$4,$2
 679 065c 0000828F 		lw	$2,%call16(ListCmdrGetValue)($28)
 680 0660 00000000 		nop
 681 0664 21C84000 		move	$25,$2
 682 0668 09F82003 		jalr	$25
 683 066c 00000000 		nop
 684              	
 685 0670 1000DC8F 		lw	$28,16($fp)
 686 0674 21200002 		move	$4,$16
 687 0678 21284000 		move	$5,$2
 688 067c 0000828F 		lw	$2,%call16(printf)($28)
 689 0680 00000000 		nop
 690 0684 21C84000 		move	$25,$2
 691 0688 09F82003 		jalr	$25
 692 068c 00000000 		nop
 693              	
 694 0690 1000DC8F 		lw	$28,16($fp)
  77:apps/WikiApp.c ****     return ListViewDraw(&wa->section.textView);
 695              		.loc 3 78 0
 696 0694 2800C28F 		lw	$2,40($fp)
 697 0698 00000000 		nop
 698 069c 08014224 		addiu	$2,$2,264
 699 06a0 21204000 		move	$4,$2
 700 06a4 0000828F 		lw	$2,%call16(ListViewDraw)($28)
 701 06a8 00000000 		nop
 702 06ac 21C84000 		move	$25,$2
 703 06b0 09F82003 		jalr	$25
 704 06b4 00000000 		nop
 705              	
 706 06b8 1000DC8F 		lw	$28,16($fp)
 707 06bc 02000010 		b	$L19
 708 06c0 00000000 		nop
 709              	
 710              	$L21:
  78:apps/WikiApp.c ****   }
  79:apps/WikiApp.c ****   return 1;
 711              		.loc 3 80 0
 712 06c4 01000224 		li	$2,1			# 0x1
 713              	$L19:
  80:apps/WikiApp.c **** }
 714              		.loc 3 81 0
 715 06c8 21E8C003 		move	$sp,$fp
 716 06cc 2400BF8F 		lw	$31,36($sp)
 717 06d0 2000BE8F 		lw	$fp,32($sp)
 718 06d4 1C00B08F 		lw	$16,28($sp)
 719 06d8 2800BD27 		addiu	$sp,$sp,40
 720 06dc 0800E003 		j	$31
 721 06e0 00000000 		nop
 722              	
 723              		.set	macro
 724              		.set	reorder
 725              		.end	WikiAppDraw
 726              	$LFE6:
 728              		.rdata
 729 0099 000000   		.align	2
 730              	$LC9:
 731 009c 1B5B324A 		.ascii	"\033[2J\033[H\000"
 731      1B5B4800 
 732              		.text
 733              		.align	2
 734              		.globl	TitleSearchPushEvent
 735              	$LFB7 = .
  81:apps/WikiApp.c **** 
  82:apps/WikiApp.c **** char TitleSearchPushEvent(WikiApp *wa, int r) {
 736              		.loc 3 83 0
 737              		.set	nomips16
 738              		.ent	TitleSearchPushEvent
 740              	TitleSearchPushEvent:
 741              		.frame	$fp,32,$31		# vars= 0, regs= 2/0, args= 16, gp= 8
 742              		.mask	0xc0000000,-4
 743              		.fmask	0x00000000,0
 744              		.set	noreorder
 745              		.set	nomacro
 746              		
 747 06e4 E0FFBD27 		addiu	$sp,$sp,-32
 748              	$LCFI23:
 749 06e8 1C00BFAF 		sw	$31,28($sp)
 750              	$LCFI24:
 751 06ec 1800BEAF 		sw	$fp,24($sp)
 752              	$LCFI25:
 753 06f0 21F0A003 		move	$fp,$sp
 754              	$LCFI26:
 755 06f4 00001C3C 		lui	$28,%hi(__gnu_local_gp)
 756 06f8 00009C27 		addiu	$28,$28,%lo(__gnu_local_gp)
 757 06fc 1000BCAF 		.cprestore	16
 758 0700 2000C4AF 		sw	$4,32($fp)
 759 0704 2400C5AF 		sw	$5,36($fp)
  83:apps/WikiApp.c ****   ListCmdrPushEvent(&wa->search.searchCmdr, r);
 760              		.loc 3 84 0
 761 0708 2000C28F 		lw	$2,32($fp)
 762 070c 00000000 		nop
 763 0710 58014224 		addiu	$2,$2,344
 764 0714 21204000 		move	$4,$2
 765 0718 2400C58F 		lw	$5,36($fp)
 766 071c 0000828F 		lw	$2,%call16(ListCmdrPushEvent)($28)
 767 0720 00000000 		nop
 768 0724 21C84000 		move	$25,$2
 769 0728 09F82003 		jalr	$25
 770 072c 00000000 		nop
 771              	
 772 0730 1000DC8F 		lw	$28,16($fp)
  84:apps/WikiApp.c ****   if (ListCmdrIsFinished(&wa->search.searchCmdr)) {
 773              		.loc 3 85 0
 774 0734 2000C28F 		lw	$2,32($fp)
 775 0738 00000000 		nop
 776 073c 58014224 		addiu	$2,$2,344
 777 0740 21204000 		move	$4,$2
 778              		.option	pic0
 779 0744 0000000C 		jal	ListCmdrIsFinished
 780 0748 00000000 		nop
 781              	
 782              		.option	pic2
 783 074c 1000DC8F 		lw	$28,16($fp)
 784 0750 40004010 		beq	$2,$0,$L24
 785 0754 00000000 		nop
 786              	
  85:apps/WikiApp.c ****     if (ListCmdrGetValue(&wa->search.searchCmdr)) {
 787              		.loc 3 86 0
 788 0758 2000C28F 		lw	$2,32($fp)
 789 075c 00000000 		nop
 790 0760 58014224 		addiu	$2,$2,344
 791 0764 21204000 		move	$4,$2
 792 0768 0000828F 		lw	$2,%call16(ListCmdrGetValue)($28)
 793 076c 00000000 		nop
 794 0770 21C84000 		move	$25,$2
 795 0774 09F82003 		jalr	$25
 796 0778 00000000 		nop
 797              	
 798 077c 1000DC8F 		lw	$28,16($fp)
 799 0780 31004010 		beq	$2,$0,$L25
 800 0784 00000000 		nop
 801              	
  86:apps/WikiApp.c ****       WikiAppSetTitle(wa, ListCmdrGetValue(&wa->search.searchCmdr));
 802              		.loc 3 87 0
 803 0788 2000C28F 		lw	$2,32($fp)
 804 078c 00000000 		nop
 805 0790 58014224 		addiu	$2,$2,344
 806 0794 21204000 		move	$4,$2
 807 0798 0000828F 		lw	$2,%call16(ListCmdrGetValue)($28)
 808 079c 00000000 		nop
 809 07a0 21C84000 		move	$25,$2
 810 07a4 09F82003 		jalr	$25
 811 07a8 00000000 		nop
 812              	
 813 07ac 1000DC8F 		lw	$28,16($fp)
 814 07b0 2000C48F 		lw	$4,32($fp)
 815 07b4 21284000 		move	$5,$2
 816              		.option	pic0
 817 07b8 0000000C 		jal	WikiAppSetTitle
 818 07bc 00000000 		nop
 819              	
 820              		.option	pic2
 821 07c0 1000DC8F 		lw	$28,16($fp)
  87:apps/WikiApp.c ****       wa->state = WATocList;
 822              		.loc 3 88 0
 823 07c4 2000C28F 		lw	$2,32($fp)
 824 07c8 01000324 		li	$3,1			# 0x1
 825 07cc 500243AC 		sw	$3,592($2)
  88:apps/WikiApp.c ****       wa->toc.cmdr.finished = 0;
 826              		.loc 3 89 0
 827 07d0 2000C28F 		lw	$2,32($fp)
 828 07d4 00000000 		nop
 829 07d8 B00040AC 		sw	$0,176($2)
  89:apps/WikiApp.c ****       fprintf(stdout, VERASE_SCR);
 830              		.loc 3 90 0
 831 07dc 0000023C 		lui	$2,%hi($LC9)
 832 07e0 9C004324 		addiu	$3,$2,%lo($LC9)
 833 07e4 0000828F 		lw	$2,%got(stdout)($28)
 834 07e8 00000000 		nop
 835 07ec 0000428C 		lw	$2,0($2)
 836 07f0 21206000 		move	$4,$3
 837 07f4 01000524 		li	$5,1			# 0x1
 838 07f8 07000624 		li	$6,7			# 0x7
 839 07fc 21384000 		move	$7,$2
 840 0800 0000828F 		lw	$2,%call16(fwrite)($28)
 841 0804 00000000 		nop
 842 0808 21C84000 		move	$25,$2
 843 080c 09F82003 		jalr	$25
 844 0810 00000000 		nop
 845              	
 846 0814 1000DC8F 		lw	$28,16($fp)
  90:apps/WikiApp.c ****       ListCmdrForceRedraw(&wa->toc.cmdr);
 847              		.loc 3 91 0
 848 0818 2000C28F 		lw	$2,32($fp)
 849 081c 00000000 		nop
 850 0820 24004224 		addiu	$2,$2,36
 851 0824 21204000 		move	$4,$2
 852 0828 0000828F 		lw	$2,%call16(ListCmdrForceRedraw)($28)
 853 082c 00000000 		nop
 854 0830 21C84000 		move	$25,$2
 855 0834 09F82003 		jalr	$25
 856 0838 00000000 		nop
 857              	
 858 083c 1000DC8F 		lw	$28,16($fp)
 859 0840 04000010 		b	$L24
 860 0844 00000000 		nop
 861              	
 862              	$L25:
  91:apps/WikiApp.c ****     } else { // user Abort - already at top
  92:apps/WikiApp.c ****       wa->search.searchCmdr.finished = 0;
 863              		.loc 3 93 0
 864 0848 2000C28F 		lw	$2,32($fp)
 865 084c 00000000 		nop
 866 0850 E40140AC 		sw	$0,484($2)
 867              	$L24:
  93:apps/WikiApp.c ****     }
  94:apps/WikiApp.c ****   }
  95:apps/WikiApp.c ****   return 1;
 868              		.loc 3 96 0
 869 0854 01000224 		li	$2,1			# 0x1
  96:apps/WikiApp.c **** }
 870              		.loc 3 97 0
 871 0858 21E8C003 		move	$sp,$fp
 872 085c 1C00BF8F 		lw	$31,28($sp)
 873 0860 1800BE8F 		lw	$fp,24($sp)
 874 0864 2000BD27 		addiu	$sp,$sp,32
 875 0868 0800E003 		j	$31
 876 086c 00000000 		nop
 877              	
 878              		.set	macro
 879              		.set	reorder
 880              		.end	TitleSearchPushEvent
 881              	$LFE7:
 883              		.align	2
 884              		.globl	TocPushEvent
 885              	$LFB8 = .
  97:apps/WikiApp.c **** 
  98:apps/WikiApp.c **** char TocPushEvent(WikiApp *wa, int r) {
 886              		.loc 3 99 0
 887              		.set	nomips16
 888              		.ent	TocPushEvent
 890              	TocPushEvent:
 891              		.frame	$fp,32,$31		# vars= 0, regs= 2/0, args= 16, gp= 8
 892              		.mask	0xc0000000,-4
 893              		.fmask	0x00000000,0
 894              		.set	noreorder
 895              		.set	nomacro
 896              		
 897 0870 E0FFBD27 		addiu	$sp,$sp,-32
 898              	$LCFI27:
 899 0874 1C00BFAF 		sw	$31,28($sp)
 900              	$LCFI28:
 901 0878 1800BEAF 		sw	$fp,24($sp)
 902              	$LCFI29:
 903 087c 21F0A003 		move	$fp,$sp
 904              	$LCFI30:
 905 0880 00001C3C 		lui	$28,%hi(__gnu_local_gp)
 906 0884 00009C27 		addiu	$28,$28,%lo(__gnu_local_gp)
 907 0888 1000BCAF 		.cprestore	16
 908 088c 2000C4AF 		sw	$4,32($fp)
 909 0890 2400C5AF 		sw	$5,36($fp)
  99:apps/WikiApp.c ****   ListCmdrPushEvent(&wa->toc.cmdr, r);
 910              		.loc 3 100 0
 911 0894 2000C28F 		lw	$2,32($fp)
 912 0898 00000000 		nop
 913 089c 24004224 		addiu	$2,$2,36
 914 08a0 21204000 		move	$4,$2
 915 08a4 2400C58F 		lw	$5,36($fp)
 916 08a8 0000828F 		lw	$2,%call16(ListCmdrPushEvent)($28)
 917 08ac 00000000 		nop
 918 08b0 21C84000 		move	$25,$2
 919 08b4 09F82003 		jalr	$25
 920 08b8 00000000 		nop
 921              	
 922 08bc 1000DC8F 		lw	$28,16($fp)
 100:apps/WikiApp.c ****   if (ListCmdrIsFinished(&wa->toc.cmdr)) {
 923              		.loc 3 101 0
 924 08c0 2000C28F 		lw	$2,32($fp)
 925 08c4 00000000 		nop
 926 08c8 24004224 		addiu	$2,$2,36
 927 08cc 21204000 		move	$4,$2
 928              		.option	pic0
 929 08d0 0000000C 		jal	ListCmdrIsFinished
 930 08d4 00000000 		nop
 931              	
 932              		.option	pic2
 933 08d8 1000DC8F 		lw	$28,16($fp)
 934 08dc 6E004010 		beq	$2,$0,$L28
 935 08e0 00000000 		nop
 936              	
 101:apps/WikiApp.c ****     if (ListCmdrGetValue(&wa->toc.cmdr)) {
 937              		.loc 3 102 0
 938 08e4 2000C28F 		lw	$2,32($fp)
 939 08e8 00000000 		nop
 940 08ec 24004224 		addiu	$2,$2,36
 941 08f0 21204000 		move	$4,$2
 942 08f4 0000828F 		lw	$2,%call16(ListCmdrGetValue)($28)
 943 08f8 00000000 		nop
 944 08fc 21C84000 		move	$25,$2
 945 0900 09F82003 		jalr	$25
 946 0904 00000000 		nop
 947              	
 948 0908 1000DC8F 		lw	$28,16($fp)
 949 090c 24004010 		beq	$2,$0,$L29
 950 0910 00000000 		nop
 951              	
 102:apps/WikiApp.c ****       WikiAppSetText(wa, ListCmdrGetValue(&wa->toc.cmdr));
 952              		.loc 3 103 0
 953 0914 2000C28F 		lw	$2,32($fp)
 954 0918 00000000 		nop
 955 091c 24004224 		addiu	$2,$2,36
 956 0920 21204000 		move	$4,$2
 957 0924 0000828F 		lw	$2,%call16(ListCmdrGetValue)($28)
 958 0928 00000000 		nop
 959 092c 21C84000 		move	$25,$2
 960 0930 09F82003 		jalr	$25
 961 0934 00000000 		nop
 962              	
 963 0938 1000DC8F 		lw	$28,16($fp)
 964 093c 2000C48F 		lw	$4,32($fp)
 965 0940 21284000 		move	$5,$2
 966              		.option	pic0
 967 0944 0000000C 		jal	WikiAppSetText
 968 0948 00000000 		nop
 969              	
 970              		.option	pic2
 971 094c 1000DC8F 		lw	$28,16($fp)
 103:apps/WikiApp.c ****       wa->state = WATextViewer;
 972              		.loc 3 104 0
 973 0950 2000C28F 		lw	$2,32($fp)
 974 0954 02000324 		li	$3,2			# 0x2
 975 0958 500243AC 		sw	$3,592($2)
 104:apps/WikiApp.c ****       fprintf(stdout, VERASE_SCR);
 976              		.loc 3 105 0
 977 095c 0000023C 		lui	$2,%hi($LC9)
 978 0960 9C004324 		addiu	$3,$2,%lo($LC9)
 979 0964 0000828F 		lw	$2,%got(stdout)($28)
 980 0968 00000000 		nop
 981 096c 0000428C 		lw	$2,0($2)
 982 0970 21206000 		move	$4,$3
 983 0974 01000524 		li	$5,1			# 0x1
 984 0978 07000624 		li	$6,7			# 0x7
 985 097c 21384000 		move	$7,$2
 986 0980 0000828F 		lw	$2,%call16(fwrite)($28)
 987 0984 00000000 		nop
 988 0988 21C84000 		move	$25,$2
 989 098c 09F82003 		jalr	$25
 990 0990 00000000 		nop
 991              	
 992 0994 1000DC8F 		lw	$28,16($fp)
 993 0998 3F000010 		b	$L28
 994 099c 00000000 		nop
 995              	
 996              	$L29:
 105:apps/WikiApp.c ****     } else { // user abort
 106:apps/WikiApp.c ****       TocDestroy(&wa->toc);
 997              		.loc 3 107 0
 998 09a0 2000C28F 		lw	$2,32($fp)
 999 09a4 00000000 		nop
 1000 09a8 18004224 		addiu	$2,$2,24
 1001 09ac 21204000 		move	$4,$2
 1002 09b0 0000828F 		lw	$2,%call16(TocDestroy)($28)
 1003 09b4 00000000 		nop
 1004 09b8 21C84000 		move	$25,$2
 1005 09bc 09F82003 		jalr	$25
 1006 09c0 00000000 		nop
 1007              	
 1008 09c4 1000DC8F 		lw	$28,16($fp)
 107:apps/WikiApp.c ****       MorseBoxReset(&wa->search.searchCmdr.mbox);
 1009              		.loc 3 108 0
 1010 09c8 2000C28F 		lw	$2,32($fp)
 1011 09cc 00000000 		nop
 1012 09d0 5C014224 		addiu	$2,$2,348
 1013 09d4 21204000 		move	$4,$2
 1014 09d8 0000828F 		lw	$2,%call16(MorseBoxReset)($28)
 1015 09dc 00000000 		nop
 1016 09e0 21C84000 		move	$25,$2
 1017 09e4 09F82003 		jalr	$25
 1018 09e8 00000000 		nop
 1019              	
 1020 09ec 1000DC8F 		lw	$28,16($fp)
 108:apps/WikiApp.c ****       //MorseBoxSetBuffer(&wa->search.searchCmdr.mbox, "");
 109:apps/WikiApp.c ****       //ListViewSetFocus(&wa->search.searchCmdr.view, -1);
 110:apps/WikiApp.c ****       wa->search.searchCmdr.finished = 0;
 1021              		.loc 3 111 0
 1022 09f0 2000C28F 		lw	$2,32($fp)
 1023 09f4 00000000 		nop
 1024 09f8 E40140AC 		sw	$0,484($2)
 111:apps/WikiApp.c ****       ListCmdrPushEvent(&wa->search.searchCmdr, -1);
 1025              		.loc 3 112 0
 1026 09fc 2000C28F 		lw	$2,32($fp)
 1027 0a00 00000000 		nop
 1028 0a04 58014224 		addiu	$2,$2,344
 1029 0a08 21204000 		move	$4,$2
 1030 0a0c FFFF0524 		li	$5,-1			# 0xffffffffffffffff
 1031 0a10 0000828F 		lw	$2,%call16(ListCmdrPushEvent)($28)
 1032 0a14 00000000 		nop
 1033 0a18 21C84000 		move	$25,$2
 1034 0a1c 09F82003 		jalr	$25
 1035 0a20 00000000 		nop
 1036              	
 1037 0a24 1000DC8F 		lw	$28,16($fp)
 112:apps/WikiApp.c ****       wa->state = WAGlobalSearch;
 1038              		.loc 3 113 0
 1039 0a28 2000C28F 		lw	$2,32($fp)
 1040 0a2c 00000000 		nop
 1041 0a30 500240AC 		sw	$0,592($2)
 113:apps/WikiApp.c ****       fprintf(stdout, VERASE_SCR);
 1042              		.loc 3 114 0
 1043 0a34 0000023C 		lui	$2,%hi($LC9)
 1044 0a38 9C004324 		addiu	$3,$2,%lo($LC9)
 1045 0a3c 0000828F 		lw	$2,%got(stdout)($28)
 1046 0a40 00000000 		nop
 1047 0a44 0000428C 		lw	$2,0($2)
 1048 0a48 21206000 		move	$4,$3
 1049 0a4c 01000524 		li	$5,1			# 0x1
 1050 0a50 07000624 		li	$6,7			# 0x7
 1051 0a54 21384000 		move	$7,$2
 1052 0a58 0000828F 		lw	$2,%call16(fwrite)($28)
 1053 0a5c 00000000 		nop
 1054 0a60 21C84000 		move	$25,$2
 1055 0a64 09F82003 		jalr	$25
 1056 0a68 00000000 		nop
 1057              	
 1058 0a6c 1000DC8F 		lw	$28,16($fp)
 114:apps/WikiApp.c ****       ListCmdrForceRedraw(&wa->search.searchCmdr);
 1059              		.loc 3 115 0
 1060 0a70 2000C28F 		lw	$2,32($fp)
 1061 0a74 00000000 		nop
 1062 0a78 58014224 		addiu	$2,$2,344
 1063 0a7c 21204000 		move	$4,$2
 1064 0a80 0000828F 		lw	$2,%call16(ListCmdrForceRedraw)($28)
 1065 0a84 00000000 		nop
 1066 0a88 21C84000 		move	$25,$2
 1067 0a8c 09F82003 		jalr	$25
 1068 0a90 00000000 		nop
 1069              	
 1070 0a94 1000DC8F 		lw	$28,16($fp)
 1071              	$L28:
 115:apps/WikiApp.c ****     }
 116:apps/WikiApp.c ****   }
 117:apps/WikiApp.c ****   return 1;
 1072              		.loc 3 118 0
 1073 0a98 01000224 		li	$2,1			# 0x1
 118:apps/WikiApp.c **** }
 1074              		.loc 3 119 0
 1075 0a9c 21E8C003 		move	$sp,$fp
 1076 0aa0 1C00BF8F 		lw	$31,28($sp)
 1077 0aa4 1800BE8F 		lw	$fp,24($sp)
 1078 0aa8 2000BD27 		addiu	$sp,$sp,32
 1079 0aac 0800E003 		j	$31
 1080 0ab0 00000000 		nop
 1081              	
 1082              		.set	macro
 1083              		.set	reorder
 1084              		.end	TocPushEvent
 1085              	$LFE8:
 1087              		.rdata
 1088              		.align	2
 1089              	$LC10:
 1090 00a4 00       		.ascii	"\000"
 1091 00a5 00000000 		.text
 1091      00000000 
 1091      000000
 1092              		.align	2
 1093              		.globl	WTextViewerPushEvent
 1094              	$LFB9 = .
 119:apps/WikiApp.c **** 
 120:apps/WikiApp.c **** char WTextViewerPushEvent(WikiApp *wa, int r) {
 1095              		.loc 3 121 0
 1096              		.set	nomips16
 1097              		.ent	WTextViewerPushEvent
 1099              	WTextViewerPushEvent:
 1100              		.frame	$fp,32,$31		# vars= 0, regs= 2/0, args= 16, gp= 8
 1101              		.mask	0xc0000000,-4
 1102              		.fmask	0x00000000,0
 1103              		.set	noreorder
 1104              		.set	nomacro
 1105              		
 1106 0ab4 E0FFBD27 		addiu	$sp,$sp,-32
 1107              	$LCFI31:
 1108 0ab8 1C00BFAF 		sw	$31,28($sp)
 1109              	$LCFI32:
 1110 0abc 1800BEAF 		sw	$fp,24($sp)
 1111              	$LCFI33:
 1112 0ac0 21F0A003 		move	$fp,$sp
 1113              	$LCFI34:
 1114 0ac4 00001C3C 		lui	$28,%hi(__gnu_local_gp)
 1115 0ac8 00009C27 		addiu	$28,$28,%lo(__gnu_local_gp)
 1116 0acc 1000BCAF 		.cprestore	16
 1117 0ad0 2000C4AF 		sw	$4,32($fp)
 1118 0ad4 2400C5AF 		sw	$5,36($fp)
 121:apps/WikiApp.c ****   if (r == UP_ARROW) {
 1119              		.loc 3 122 0
 1120 0ad8 2400C38F 		lw	$3,36($fp)
 1121 0adc 00410224 		li	$2,16640			# 0x4100
 1122 0ae0 0D006214 		bne	$3,$2,$L32
 1123 0ae4 00000000 		nop
 1124              	
 122:apps/WikiApp.c ****     ListViewFocusPrev(&wa->section.textView);
 1125              		.loc 3 123 0
 1126 0ae8 2000C28F 		lw	$2,32($fp)
 1127 0aec 00000000 		nop
 1128 0af0 08014224 		addiu	$2,$2,264
 1129 0af4 21204000 		move	$4,$2
 1130 0af8 0000828F 		lw	$2,%call16(ListViewFocusPrev)($28)
 1131 0afc 00000000 		nop
 1132 0b00 21C84000 		move	$25,$2
 1133 0b04 09F82003 		jalr	$25
 1134 0b08 00000000 		nop
 1135              	
 1136 0b0c 1000DC8F 		lw	$28,16($fp)
 1137 0b10 0F000010 		b	$L33
 1138 0b14 00000000 		nop
 1139              	
 1140              	$L32:
 123:apps/WikiApp.c ****   } else if (r == DOWN_ARROW) {
 1141              		.loc 3 124 0
 1142 0b18 2400C38F 		lw	$3,36($fp)
 1143 0b1c 00420224 		li	$2,16896			# 0x4200
 1144 0b20 0B006214 		bne	$3,$2,$L33
 1145 0b24 00000000 		nop
 1146              	
 124:apps/WikiApp.c ****     ListViewFocusNext(&wa->section.textView);
 1147              		.loc 3 125 0
 1148 0b28 2000C28F 		lw	$2,32($fp)
 1149 0b2c 00000000 		nop
 1150 0b30 08014224 		addiu	$2,$2,264
 1151 0b34 21204000 		move	$4,$2
 1152 0b38 0000828F 		lw	$2,%call16(ListViewFocusNext)($28)
 1153 0b3c 00000000 		nop
 1154 0b40 21C84000 		move	$25,$2
 1155 0b44 09F82003 		jalr	$25
 1156 0b48 00000000 		nop
 1157              	
 1158 0b4c 1000DC8F 		lw	$28,16($fp)
 1159              	$L33:
 125:apps/WikiApp.c ****   }
 126:apps/WikiApp.c ****   if (r == LEFT_ARROW) { // return to ToC
 1160              		.loc 3 127 0
 1161 0b50 2400C38F 		lw	$3,36($fp)
 1162 0b54 00440224 		li	$2,17408			# 0x4400
 1163 0b58 4B006214 		bne	$3,$2,$L34
 1164 0b5c 00000000 		nop
 1165              	
 127:apps/WikiApp.c ****     wa->toc.cmdr.finished = 0;
 1166              		.loc 3 128 0
 1167 0b60 2000C28F 		lw	$2,32($fp)
 1168 0b64 00000000 		nop
 1169 0b68 B00040AC 		sw	$0,176($2)
 128:apps/WikiApp.c ****     MorseBoxReset(&wa->toc.cmdr.mbox);
 1170              		.loc 3 129 0
 1171 0b6c 2000C28F 		lw	$2,32($fp)
 1172 0b70 00000000 		nop
 1173 0b74 28004224 		addiu	$2,$2,40
 1174 0b78 21204000 		move	$4,$2
 1175 0b7c 0000828F 		lw	$2,%call16(MorseBoxReset)($28)
 1176 0b80 00000000 		nop
 1177 0b84 21C84000 		move	$25,$2
 1178 0b88 09F82003 		jalr	$25
 1179 0b8c 00000000 		nop
 1180              	
 1181 0b90 1000DC8F 		lw	$28,16($fp)
 129:apps/WikiApp.c ****     MorseBoxSetBuffer(&wa->toc.cmdr.mbox, "");
 1182              		.loc 3 130 0
 1183 0b94 2000C28F 		lw	$2,32($fp)
 1184 0b98 00000000 		nop
 1185 0b9c 28004224 		addiu	$2,$2,40
 1186 0ba0 21204000 		move	$4,$2
 1187 0ba4 0000023C 		lui	$2,%hi($LC10)
 1188 0ba8 A4004524 		addiu	$5,$2,%lo($LC10)
 1189 0bac 0000828F 		lw	$2,%call16(MorseBoxSetBuffer)($28)
 1190 0bb0 00000000 		nop
 1191 0bb4 21C84000 		move	$25,$2
 1192 0bb8 09F82003 		jalr	$25
 1193 0bbc 00000000 		nop
 1194              	
 1195 0bc0 1000DC8F 		lw	$28,16($fp)
 130:apps/WikiApp.c ****     //ListViewSetFocus(&wa->tocCmdr.view, -1);
 131:apps/WikiApp.c ****     ListCmdrPushEvent(&wa->toc.cmdr, -1);
 1196              		.loc 3 132 0
 1197 0bc4 2000C28F 		lw	$2,32($fp)
 1198 0bc8 00000000 		nop
 1199 0bcc 24004224 		addiu	$2,$2,36
 1200 0bd0 21204000 		move	$4,$2
 1201 0bd4 FFFF0524 		li	$5,-1			# 0xffffffffffffffff
 1202 0bd8 0000828F 		lw	$2,%call16(ListCmdrPushEvent)($28)
 1203 0bdc 00000000 		nop
 1204 0be0 21C84000 		move	$25,$2
 1205 0be4 09F82003 		jalr	$25
 1206 0be8 00000000 		nop
 1207              	
 1208 0bec 1000DC8F 		lw	$28,16($fp)
 132:apps/WikiApp.c ****     SectionViewDestroy(&wa->section);
 1209              		.loc 3 133 0
 1210 0bf0 2000C28F 		lw	$2,32($fp)
 1211 0bf4 00000000 		nop
 1212 0bf8 EC004224 		addiu	$2,$2,236
 1213 0bfc 21204000 		move	$4,$2
 1214 0c00 0000828F 		lw	$2,%call16(SectionViewDestroy)($28)
 1215 0c04 00000000 		nop
 1216 0c08 21C84000 		move	$25,$2
 1217 0c0c 09F82003 		jalr	$25
 1218 0c10 00000000 		nop
 1219              	
 1220 0c14 1000DC8F 		lw	$28,16($fp)
 133:apps/WikiApp.c ****     wa->state = WATocList;
 1221              		.loc 3 134 0
 1222 0c18 2000C28F 		lw	$2,32($fp)
 1223 0c1c 01000324 		li	$3,1			# 0x1
 1224 0c20 500243AC 		sw	$3,592($2)
 134:apps/WikiApp.c ****     fprintf(stdout, VERASE_SCR);
 1225              		.loc 3 135 0
 1226 0c24 0000023C 		lui	$2,%hi($LC9)
 1227 0c28 9C004324 		addiu	$3,$2,%lo($LC9)
 1228 0c2c 0000828F 		lw	$2,%got(stdout)($28)
 1229 0c30 00000000 		nop
 1230 0c34 0000428C 		lw	$2,0($2)
 1231 0c38 21206000 		move	$4,$3
 1232 0c3c 01000524 		li	$5,1			# 0x1
 1233 0c40 07000624 		li	$6,7			# 0x7
 1234 0c44 21384000 		move	$7,$2
 1235 0c48 0000828F 		lw	$2,%call16(fwrite)($28)
 1236 0c4c 00000000 		nop
 1237 0c50 21C84000 		move	$25,$2
 1238 0c54 09F82003 		jalr	$25
 1239 0c58 00000000 		nop
 1240              	
 1241 0c5c 1000DC8F 		lw	$28,16($fp)
 135:apps/WikiApp.c ****     ListCmdrForceRedraw(&wa->toc.cmdr);
 1242              		.loc 3 136 0
 1243 0c60 2000C28F 		lw	$2,32($fp)
 1244 0c64 00000000 		nop
 1245 0c68 24004224 		addiu	$2,$2,36
 1246 0c6c 21204000 		move	$4,$2
 1247 0c70 0000828F 		lw	$2,%call16(ListCmdrForceRedraw)($28)
 1248 0c74 00000000 		nop
 1249 0c78 21C84000 		move	$25,$2
 1250 0c7c 09F82003 		jalr	$25
 1251 0c80 00000000 		nop
 1252              	
 1253 0c84 1000DC8F 		lw	$28,16($fp)
 1254              	$L34:
 136:apps/WikiApp.c ****   }
 137:apps/WikiApp.c ****   return 1;
 1255              		.loc 3 138 0
 1256 0c88 01000224 		li	$2,1			# 0x1
 138:apps/WikiApp.c **** }
 1257              		.loc 3 139 0
 1258 0c8c 21E8C003 		move	$sp,$fp
 1259 0c90 1C00BF8F 		lw	$31,28($sp)
 1260 0c94 1800BE8F 		lw	$fp,24($sp)
 1261 0c98 2000BD27 		addiu	$sp,$sp,32
 1262 0c9c 0800E003 		j	$31
 1263 0ca0 00000000 		nop
 1264              	
 1265              		.set	macro
 1266              		.set	reorder
 1267              		.end	WTextViewerPushEvent
 1268              	$LFE9:
 1270              		.align	2
 1271              		.globl	WikiAppPushEvent
 1272              	$LFB10 = .
 139:apps/WikiApp.c **** 
 140:apps/WikiApp.c **** char WikiAppPushEvent(WikiApp *wa, int r) {
 1273              		.loc 3 141 0
 1274              		.set	nomips16
 1275              		.ent	WikiAppPushEvent
 1277              	WikiAppPushEvent:
 1278              		.frame	$fp,32,$31		# vars= 0, regs= 2/0, args= 16, gp= 8
 1279              		.mask	0xc0000000,-4
 1280              		.fmask	0x00000000,0
 1281              		.set	noreorder
 1282              		.set	nomacro
 1283              		
 1284 0ca4 E0FFBD27 		addiu	$sp,$sp,-32
 1285              	$LCFI35:
 1286 0ca8 1C00BFAF 		sw	$31,28($sp)
 1287              	$LCFI36:
 1288 0cac 1800BEAF 		sw	$fp,24($sp)
 1289              	$LCFI37:
 1290 0cb0 21F0A003 		move	$fp,$sp
 1291              	$LCFI38:
 1292 0cb4 00001C3C 		lui	$28,%hi(__gnu_local_gp)
 1293 0cb8 00009C27 		addiu	$28,$28,%lo(__gnu_local_gp)
 1294 0cbc 1000BCAF 		.cprestore	16
 1295 0cc0 2000C4AF 		sw	$4,32($fp)
 1296 0cc4 2400C5AF 		sw	$5,36($fp)
 141:apps/WikiApp.c ****   static unsigned char escState = 0;
 142:apps/WikiApp.c ****   r = InputUnescape(r, &escState);
 1297              		.loc 3 143 0
 1298 0cc8 2400C48F 		lw	$4,36($fp)
 1299 0ccc 0000023C 		lui	$2,%hi(escState.2668)
 1300 0cd0 00004524 		addiu	$5,$2,%lo(escState.2668)
 1301 0cd4 0000828F 		lw	$2,%call16(InputUnescape)($28)
 1302 0cd8 00000000 		nop
 1303 0cdc 21C84000 		move	$25,$2
 1304 0ce0 09F82003 		jalr	$25
 1305 0ce4 00000000 		nop
 1306              	
 1307 0ce8 1000DC8F 		lw	$28,16($fp)
 1308 0cec 2400C2AF 		sw	$2,36($fp)
 143:apps/WikiApp.c ****   if (r == -1) return 0;
 1309              		.loc 3 144 0
 1310 0cf0 2400C38F 		lw	$3,36($fp)
 1311 0cf4 FFFF0224 		li	$2,-1			# 0xffffffffffffffff
 1312 0cf8 04006214 		bne	$3,$2,$L37
 1313 0cfc 00000000 		nop
 1314              	
 1315 0d00 21100000 		move	$2,$0
 1316 0d04 29000010 		b	$L38
 1317 0d08 00000000 		nop
 1318              	
 1319              	$L37:
 144:apps/WikiApp.c ****   if (wa->state == WAGlobalSearch) {
 1320              		.loc 3 145 0
 1321 0d0c 2000C28F 		lw	$2,32($fp)
 1322 0d10 00000000 		nop
 1323 0d14 5002428C 		lw	$2,592($2)
 1324 0d18 00000000 		nop
 1325 0d1c 08004014 		bne	$2,$0,$L39
 1326 0d20 00000000 		nop
 1327              	
 145:apps/WikiApp.c ****     return TitleSearchPushEvent(wa, r);
 1328              		.loc 3 146 0
 1329 0d24 2000C48F 		lw	$4,32($fp)
 1330 0d28 2400C58F 		lw	$5,36($fp)
 1331              		.option	pic0
 1332 0d2c 0000000C 		jal	TitleSearchPushEvent
 1333 0d30 00000000 		nop
 1334              	
 1335              		.option	pic2
 1336 0d34 1000DC8F 		lw	$28,16($fp)
 1337 0d38 1C000010 		b	$L38
 1338 0d3c 00000000 		nop
 1339              	
 1340              	$L39:
 146:apps/WikiApp.c ****   } else if (wa->state == WATocList) {
 1341              		.loc 3 147 0
 1342 0d40 2000C28F 		lw	$2,32($fp)
 1343 0d44 00000000 		nop
 1344 0d48 5002438C 		lw	$3,592($2)
 1345 0d4c 01000224 		li	$2,1			# 0x1
 1346 0d50 08006214 		bne	$3,$2,$L40
 1347 0d54 00000000 		nop
 1348              	
 147:apps/WikiApp.c ****     return TocPushEvent(wa, r);
 1349              		.loc 3 148 0
 1350 0d58 2000C48F 		lw	$4,32($fp)
 1351 0d5c 2400C58F 		lw	$5,36($fp)
 1352              		.option	pic0
 1353 0d60 0000000C 		jal	TocPushEvent
 1354 0d64 00000000 		nop
 1355              	
 1356              		.option	pic2
 1357 0d68 1000DC8F 		lw	$28,16($fp)
 1358 0d6c 0F000010 		b	$L38
 1359 0d70 00000000 		nop
 1360              	
 1361              	$L40:
 148:apps/WikiApp.c ****   } else if (wa->state == WATextViewer) {
 1362              		.loc 3 149 0
 1363 0d74 2000C28F 		lw	$2,32($fp)
 1364 0d78 00000000 		nop
 1365 0d7c 5002438C 		lw	$3,592($2)
 1366 0d80 02000224 		li	$2,2			# 0x2
 1367 0d84 08006214 		bne	$3,$2,$L41
 1368 0d88 00000000 		nop
 1369              	
 149:apps/WikiApp.c ****     return WTextViewerPushEvent(wa, r);
 1370              		.loc 3 150 0
 1371 0d8c 2000C48F 		lw	$4,32($fp)
 1372 0d90 2400C58F 		lw	$5,36($fp)
 1373              		.option	pic0
 1374 0d94 0000000C 		jal	WTextViewerPushEvent
 1375 0d98 00000000 		nop
 1376              	
 1377              		.option	pic2
 1378 0d9c 1000DC8F 		lw	$28,16($fp)
 1379 0da0 02000010 		b	$L38
 1380 0da4 00000000 		nop
 1381              	
 1382              	$L41:
 150:apps/WikiApp.c ****   } else {
 151:apps/WikiApp.c ****     return 1;
 1383              		.loc 3 152 0
 1384 0da8 01000224 		li	$2,1			# 0x1
 1385              	$L38:
 152:apps/WikiApp.c ****   }
 153:apps/WikiApp.c **** }
 1386              		.loc 3 154 0
 1387 0dac 21E8C003 		move	$sp,$fp
 1388 0db0 1C00BF8F 		lw	$31,28($sp)
 1389 0db4 1800BE8F 		lw	$fp,24($sp)
 1390 0db8 2000BD27 		addiu	$sp,$sp,32
 1391 0dbc 0800E003 		j	$31
 1392 0dc0 00000000 		nop
 1393              	
 1394              		.set	macro
 1395              		.set	reorder
 1396              		.end	WikiAppPushEvent
 1397              	$LFE10:
 1399              		.local	escState.2668
 1400              		.comm	escState.2668,1,1
 1654              	$Letext0:
DEFINED SYMBOLS
                            *ABS*:0000000000000000 ui/ListCmdr.h
     /tmp/ccH2qucj.s:20     .text:0000000000000000 ListCmdrIsFinished
     /tmp/ccH2qucj.s:59     .text:0000000000000038 CursorCreateInvalid
     /tmp/ccH2qucj.s:119    .text:0000000000000090 WikiAppInit
     /tmp/ccH2qucj.s:220    .text:0000000000000194 WikiAppSetTitle
     /tmp/ccH2qucj.s:336    .text:00000000000002b4 WikiAppSetText
     /tmp/ccH2qucj.s:513    .text:0000000000000464 WikiAppDraw
     /tmp/ccH2qucj.s:740    .text:00000000000006e4 TitleSearchPushEvent
     /tmp/ccH2qucj.s:890    .text:0000000000000870 TocPushEvent
     /tmp/ccH2qucj.s:1099   .text:0000000000000ab4 WTextViewerPushEvent
     /tmp/ccH2qucj.s:1277   .text:0000000000000ca4 WikiAppPushEvent
                             .bss:0000000000000000 escState.2668

UNDEFINED SYMBOLS
__gnu_local_gp
memset
SearchViewInit
CalcUpperCRC
TocInit
ListGenModified
CursorPeek
ListGenRestart
ListGenNext
strncmp
printf
tocLastCur
SectionViewInit
CursorDestroy
ListCmdrDraw
ListCmdrGetValue
ListViewDraw
ListCmdrPushEvent
stdout
fwrite
ListCmdrForceRedraw
TocDestroy
MorseBoxReset
ListViewFocusPrev
ListViewFocusNext
MorseBoxSetBuffer
SectionViewDestroy
InputUnescape
