   1              		.section .mdebug.abi32
   2              		.previous
   3              		.gnu_attribute 4, 3
   4              		.abicalls
  12              	$Ltext0:
  13              		.align	2
  14              	$LFB1 = .
  15              		.file 1 "bgtree/bgApi.h"
   0:bgtree/bgApi.h **** #ifndef BGAPI_H
   1:bgtree/bgApi.h **** #define BGAPI_H 1
   2:bgtree/bgApi.h **** 
   3:bgtree/bgApi.h **** #include "bgCore.h"
   4:bgtree/bgApi.h **** 
   5:bgtree/bgApi.h **** typedef struct Cursor_ {
   6:bgtree/bgApi.h ****   BAT (*nextFunc)(struct Cursor_ *);
   7:bgtree/bgApi.h ****   union {
   8:bgtree/bgApi.h ****     struct {
   9:bgtree/bgApi.h ****       RowPtr row;
  10:bgtree/bgApi.h ****       KeyT key;
  11:bgtree/bgApi.h ****     } keyInfo;
  12:bgtree/bgApi.h ****     struct {
  13:bgtree/bgApi.h ****       struct Cursor_ *a;
  14:bgtree/bgApi.h ****       struct Cursor_ *b;
  15:bgtree/bgApi.h ****       BAT aLastValue, bLastValue;
  16:bgtree/bgApi.h ****     } binaryInfo;
  17:bgtree/bgApi.h ****     struct {
  18:bgtree/bgApi.h ****       struct Cursor_ *a;
  19:bgtree/bgApi.h ****       BAT lastValue;
  20:bgtree/bgApi.h ****     } uniqueInfo;
  21:bgtree/bgApi.h ****   } u;
  22:bgtree/bgApi.h **** } Cursor;
  23:bgtree/bgApi.h **** 
  24:bgtree/bgApi.h **** /** Allocate and initialize a new BgTree capable of holding
  25:bgtree/bgApi.h ****  * the specified number of items **/
  26:bgtree/bgApi.h **** BgTree TreeCreate(int numItems, void *userData);
  27:bgtree/bgApi.h **** 
  28:bgtree/bgApi.h **** void TreeInit(BgTree *t, void *userData);
  29:bgtree/bgApi.h **** 
  30:bgtree/bgApi.h **** /** Append a key/value pair to the tree **/
  31:bgtree/bgApi.h **** void TreeAppend(BgTree tree,  KeyT key, BAT value);
  32:bgtree/bgApi.h **** 
  33:bgtree/bgApi.h **** /** Calculate the size in bytes of storage space required to
  34:bgtree/bgApi.h ****  * hold a tree containing the specified number of items.  Use
  35:bgtree/bgApi.h ****  * this for pre-allocation of space if required **/
  36:bgtree/bgApi.h **** int CalcTreeSize(int numItems);
  37:bgtree/bgApi.h **** 
  38:bgtree/bgApi.h **** /** Returns a Cursor to all items in table with key **/
  39:bgtree/bgApi.h **** Cursor SelectKey(BgTree table, KeyT key);
  40:bgtree/bgApi.h **** 
  41:bgtree/bgApi.h **** /** Returns a Cursor to all items in table **/
  42:bgtree/bgApi.h **** Cursor SelectAll(BgTree table);
  43:bgtree/bgApi.h **** 
  44:bgtree/bgApi.h **** /** Returns a Cursor to item which matches with key, and all
  45:bgtree/bgApi.h ****  * items following with consecutive keys **/
  46:bgtree/bgApi.h **** Cursor SelectConsecutiveKeys(BgTree table, KeyT key);
  47:bgtree/bgApi.h **** 
  48:bgtree/bgApi.h **** /** Creates a new Cursor which iterates over all items in
  49:bgtree/bgApi.h ****  * either Cursor a or b.  Note: This does not preserve order. **/
  50:bgtree/bgApi.h **** Cursor Union(Cursor *a, Cursor *b);
  51:bgtree/bgApi.h **** /** Creates a new Cursor which iterates over all items which are BOTH in a and b. **/
  52:bgtree/bgApi.h **** Cursor Intersection(Cursor *a, Cursor *b);
  53:bgtree/bgApi.h **** /** TODO: Not Implemented **/
  54:bgtree/bgApi.h **** Cursor Unique(Cursor *a);
  55:bgtree/bgApi.h **** 
  56:bgtree/bgApi.h **** /** Get the current value from cursor and advance **/
  57:bgtree/bgApi.h **** BAT CursorNext(Cursor *c);
  58:bgtree/bgApi.h **** 
  59:bgtree/bgApi.h **** /** Duplicate a cursor.  Will call CursorDestroy(dest) first. **/
  60:bgtree/bgApi.h **** void CursorDup(Cursor *dest, Cursor *src);
  61:bgtree/bgApi.h **** 
  62:bgtree/bgApi.h **** /** Peek at the cursor's next value without incrementing the cursor.  Uses CursorDup() to make a co
  63:bgtree/bgApi.h **** BAT CursorPeek(Cursor *c);
  64:bgtree/bgApi.h **** 
  65:bgtree/bgApi.h **** 
  66:bgtree/bgApi.h **** /** Returns true if cursor is invalid **/ 
  67:bgtree/bgApi.h **** static inline int CursorIsInvalid(Cursor *c) {
  16              		.loc 1 68 0
  17              		.set	nomips16
  18              		.ent	CursorIsInvalid
  20              	CursorIsInvalid:
  21              		.frame	$fp,8,$31		# vars= 0, regs= 1/0, args= 0, gp= 0
  22              		.mask	0x40000000,-4
  23              		.fmask	0x00000000,0
  24              		.set	noreorder
  25              		.set	nomacro
  26              		
  27 0000 F8FFBD27 		addiu	$sp,$sp,-8
  28              	$LCFI0:
  29 0004 0400BEAF 		sw	$fp,4($sp)
  30              	$LCFI1:
  31 0008 21F0A003 		move	$fp,$sp
  32              	$LCFI2:
  33 000c 0800C4AF 		sw	$4,8($fp)
  68:bgtree/bgApi.h ****   return !c->nextFunc;
  34              		.loc 1 69 0
  35 0010 0800C28F 		lw	$2,8($fp)
  36 0014 00000000 		nop
  37 0018 0000428C 		lw	$2,0($2)
  38 001c 00000000 		nop
  39 0020 0100422C 		sltu	$2,$2,1
  69:bgtree/bgApi.h **** }
  40              		.loc 1 70 0
  41 0024 21E8C003 		move	$sp,$fp
  42 0028 0400BE8F 		lw	$fp,4($sp)
  43 002c 0800BD27 		addiu	$sp,$sp,8
  44 0030 0800E003 		j	$31
  45 0034 00000000 		nop
  46              	
  47              		.set	macro
  48              		.set	reorder
  49              		.end	CursorIsInvalid
  50              	$LFE1:
  52              		.align	2
  53              	$LFB3 = .
  54              		.file 2 "apps/WikiUtil.c"
   0:apps/WikiUtil.c **** #include "vt52.h"
   1:apps/WikiUtil.c **** #include <string.h>
   2:apps/WikiUtil.c **** #include <ctype.h> // toupper
   3:apps/WikiUtil.c **** #include "crc32.h"
   4:apps/WikiUtil.c **** #include "bgUtil.h"
   5:apps/WikiUtil.c **** #include "bgUtil2.h"
   6:apps/WikiUtil.c **** #include "Platform.h"
   7:apps/WikiUtil.c **** #include "ListCmdr.h"
   8:apps/WikiUtil.c **** #include "bgApi.h"
   9:apps/WikiUtil.c **** #include "WikiUtil.h"
  10:apps/WikiUtil.c **** 
  11:apps/WikiUtil.c **** static inline uint32_t GetUInt(uint32_t offset, char *schema, int field) {
  55              		.loc 2 12 0
  56              		.set	nomips16
  57              		.ent	GetUInt
  59              	GetUInt:
  60              		.frame	$fp,40,$31		# vars= 8, regs= 2/0, args= 16, gp= 8
  61              		.mask	0xc0000000,-4
  62              		.fmask	0x00000000,0
  63              		.set	noreorder
  64              		.set	nomacro
  65              		
  66 0038 D8FFBD27 		addiu	$sp,$sp,-40
  67              	$LCFI3:
  68 003c 2400BFAF 		sw	$31,36($sp)
  69              	$LCFI4:
  70 0040 2000BEAF 		sw	$fp,32($sp)
  71              	$LCFI5:
  72 0044 21F0A003 		move	$fp,$sp
  73              	$LCFI6:
  74 0048 00001C3C 		lui	$28,%hi(__gnu_local_gp)
  75 004c 00009C27 		addiu	$28,$28,%lo(__gnu_local_gp)
  76 0050 1000BCAF 		.cprestore	16
  77 0054 2800C4AF 		sw	$4,40($fp)
  78 0058 2C00C5AF 		sw	$5,44($fp)
  79 005c 3000C6AF 		sw	$6,48($fp)
  12:apps/WikiUtil.c ****   FILE *blob = FileGetHandle();
  80              		.loc 2 13 0
  81 0060 0000828F 		lw	$2,%call16(FileGetHandle)($28)
  82 0064 00000000 		nop
  83 0068 21C84000 		move	$25,$2
  84 006c 09F82003 		jalr	$25
  85 0070 00000000 		nop
  86              	
  87 0074 1000DC8F 		lw	$28,16($fp)
  88 0078 1800C2AF 		sw	$2,24($fp)
  13:apps/WikiUtil.c ****   FileSeek(offset);
  89              		.loc 2 14 0
  90 007c 2800C48F 		lw	$4,40($fp)
  91 0080 0000828F 		lw	$2,%call16(FileSeek)($28)
  92 0084 00000000 		nop
  93 0088 21C84000 		move	$25,$2
  94 008c 09F82003 		jalr	$25
  95 0090 00000000 		nop
  96              	
  97 0094 1000DC8F 		lw	$28,16($fp)
  14:apps/WikiUtil.c ****   return SchemaGetUInt(blob, schema, field);
  98              		.loc 2 15 0
  99 0098 1800C48F 		lw	$4,24($fp)
 100 009c 2C00C58F 		lw	$5,44($fp)
 101 00a0 3000C68F 		lw	$6,48($fp)
 102 00a4 0000828F 		lw	$2,%call16(SchemaGetUInt)($28)
 103 00a8 00000000 		nop
 104 00ac 21C84000 		move	$25,$2
 105 00b0 09F82003 		jalr	$25
 106 00b4 00000000 		nop
 107              	
 108 00b8 1000DC8F 		lw	$28,16($fp)
  15:apps/WikiUtil.c **** }
 109              		.loc 2 16 0
 110 00bc 21E8C003 		move	$sp,$fp
 111 00c0 2400BF8F 		lw	$31,36($sp)
 112 00c4 2000BE8F 		lw	$fp,32($sp)
 113 00c8 2800BD27 		addiu	$sp,$sp,40
 114 00cc 0800E003 		j	$31
 115 00d0 00000000 		nop
 116              	
 117              		.set	macro
 118              		.set	reorder
 119              		.end	GetUInt
 120              	$LFE3:
 122              		.align	2
 123              	$LFB4 = .
  16:apps/WikiUtil.c **** 
  17:apps/WikiUtil.c **** static inline int32_t GetInt(uint32_t offset, char *schema, int field) {
 124              		.loc 2 18 0
 125              		.set	nomips16
 126              		.ent	GetInt
 128              	GetInt:
 129              		.frame	$fp,40,$31		# vars= 8, regs= 2/0, args= 16, gp= 8
 130              		.mask	0xc0000000,-4
 131              		.fmask	0x00000000,0
 132              		.set	noreorder
 133              		.set	nomacro
 134              		
 135 00d4 D8FFBD27 		addiu	$sp,$sp,-40
 136              	$LCFI7:
 137 00d8 2400BFAF 		sw	$31,36($sp)
 138              	$LCFI8:
 139 00dc 2000BEAF 		sw	$fp,32($sp)
 140              	$LCFI9:
 141 00e0 21F0A003 		move	$fp,$sp
 142              	$LCFI10:
 143 00e4 00001C3C 		lui	$28,%hi(__gnu_local_gp)
 144 00e8 00009C27 		addiu	$28,$28,%lo(__gnu_local_gp)
 145 00ec 1000BCAF 		.cprestore	16
 146 00f0 2800C4AF 		sw	$4,40($fp)
 147 00f4 2C00C5AF 		sw	$5,44($fp)
 148 00f8 3000C6AF 		sw	$6,48($fp)
  18:apps/WikiUtil.c ****   ///printf_P(PSTR("GetInt(%lu, 0x%lx, %i) = "), (unsigned long) offset, (unsigned long) schema, fi
  19:apps/WikiUtil.c ****   FILE *blob = FileGetHandle();
 149              		.loc 2 20 0
 150 00fc 0000828F 		lw	$2,%call16(FileGetHandle)($28)
 151 0100 00000000 		nop
 152 0104 21C84000 		move	$25,$2
 153 0108 09F82003 		jalr	$25
 154 010c 00000000 		nop
 155              	
 156 0110 1000DC8F 		lw	$28,16($fp)
 157 0114 1C00C2AF 		sw	$2,28($fp)
  20:apps/WikiUtil.c ****   FileSeek(offset);
 158              		.loc 2 21 0
 159 0118 2800C48F 		lw	$4,40($fp)
 160 011c 0000828F 		lw	$2,%call16(FileSeek)($28)
 161 0120 00000000 		nop
 162 0124 21C84000 		move	$25,$2
 163 0128 09F82003 		jalr	$25
 164 012c 00000000 		nop
 165              	
 166 0130 1000DC8F 		lw	$28,16($fp)
  21:apps/WikiUtil.c ****   int res = SchemaGetInt(blob, schema, field);
 167              		.loc 2 22 0
 168 0134 1C00C48F 		lw	$4,28($fp)
 169 0138 2C00C58F 		lw	$5,44($fp)
 170 013c 3000C68F 		lw	$6,48($fp)
 171 0140 0000828F 		lw	$2,%call16(SchemaGetInt)($28)
 172 0144 00000000 		nop
 173 0148 21C84000 		move	$25,$2
 174 014c 09F82003 		jalr	$25
 175 0150 00000000 		nop
 176              	
 177 0154 1000DC8F 		lw	$28,16($fp)
 178 0158 1800C2AF 		sw	$2,24($fp)
  22:apps/WikiUtil.c ****   return res;
 179              		.loc 2 23 0
 180 015c 1800C28F 		lw	$2,24($fp)
  23:apps/WikiUtil.c **** }
 181              		.loc 2 24 0
 182 0160 21E8C003 		move	$sp,$fp
 183 0164 2400BF8F 		lw	$31,36($sp)
 184 0168 2000BE8F 		lw	$fp,32($sp)
 185 016c 2800BD27 		addiu	$sp,$sp,40
 186 0170 0800E003 		j	$31
 187 0174 00000000 		nop
 188              	
 189              		.set	macro
 190              		.set	reorder
 191              		.end	GetInt
 192              	$LFE4:
 194              		.align	2
 195              	$LFB5 = .
  24:apps/WikiUtil.c **** 
  25:apps/WikiUtil.c **** static inline int GetString(uint32_t offset, char *schema, int field, char *outBuf, int bufLen) {
 196              		.loc 2 26 0
 197              		.set	nomips16
 198              		.ent	GetString
 200              	GetString:
 201              		.frame	$fp,48,$31		# vars= 8, regs= 2/0, args= 24, gp= 8
 202              		.mask	0xc0000000,-4
 203              		.fmask	0x00000000,0
 204              		.set	noreorder
 205              		.set	nomacro
 206              		
 207 0178 D0FFBD27 		addiu	$sp,$sp,-48
 208              	$LCFI11:
 209 017c 2C00BFAF 		sw	$31,44($sp)
 210              	$LCFI12:
 211 0180 2800BEAF 		sw	$fp,40($sp)
 212              	$LCFI13:
 213 0184 21F0A003 		move	$fp,$sp
 214              	$LCFI14:
 215 0188 00001C3C 		lui	$28,%hi(__gnu_local_gp)
 216 018c 00009C27 		addiu	$28,$28,%lo(__gnu_local_gp)
 217 0190 1800BCAF 		.cprestore	24
 218 0194 3000C4AF 		sw	$4,48($fp)
 219 0198 3400C5AF 		sw	$5,52($fp)
 220 019c 3800C6AF 		sw	$6,56($fp)
 221 01a0 3C00C7AF 		sw	$7,60($fp)
  26:apps/WikiUtil.c ****   ///printf_P(PSTR("GetString(%li, %s, %i, ..)\n"),(unsigned long) offset, schema, field);
  27:apps/WikiUtil.c ****   FILE *blob = FileGetHandle();
 222              		.loc 2 28 0
 223 01a4 0000828F 		lw	$2,%call16(FileGetHandle)($28)
 224 01a8 00000000 		nop
 225 01ac 21C84000 		move	$25,$2
 226 01b0 09F82003 		jalr	$25
 227 01b4 00000000 		nop
 228              	
 229 01b8 1800DC8F 		lw	$28,24($fp)
 230 01bc 2000C2AF 		sw	$2,32($fp)
  28:apps/WikiUtil.c ****   FileSeek(offset);
 231              		.loc 2 29 0
 232 01c0 3000C48F 		lw	$4,48($fp)
 233 01c4 0000828F 		lw	$2,%call16(FileSeek)($28)
 234 01c8 00000000 		nop
 235 01cc 21C84000 		move	$25,$2
 236 01d0 09F82003 		jalr	$25
 237 01d4 00000000 		nop
 238              	
 239 01d8 1800DC8F 		lw	$28,24($fp)
 240 01dc 00000000 		nop
  29:apps/WikiUtil.c ****   if (IsError) return 0;
 241              		.loc 2 30 0
 242 01e0 0000828F 		lw	$2,%got(errorMsg)($28)
 243 01e4 00000000 		nop
 244 01e8 0000428C 		lw	$2,0($2)
 245 01ec 00000000 		nop
 246 01f0 04004010 		beq	$2,$0,$L8
 247 01f4 00000000 		nop
 248              	
 249 01f8 21100000 		move	$2,$0
 250 01fc 0E000010 		b	$L9
 251 0200 00000000 		nop
 252              	
 253              	$L8:
  30:apps/WikiUtil.c ****   return SchemaGetString(blob, schema, field, outBuf, bufLen);
 254              		.loc 2 31 0
 255 0204 4000C28F 		lw	$2,64($fp)
 256 0208 00000000 		nop
 257 020c 1000A2AF 		sw	$2,16($sp)
 258 0210 2000C48F 		lw	$4,32($fp)
 259 0214 3400C58F 		lw	$5,52($fp)
 260 0218 3800C68F 		lw	$6,56($fp)
 261 021c 3C00C78F 		lw	$7,60($fp)
 262 0220 0000828F 		lw	$2,%call16(SchemaGetString)($28)
 263 0224 00000000 		nop
 264 0228 21C84000 		move	$25,$2
 265 022c 09F82003 		jalr	$25
 266 0230 00000000 		nop
 267              	
 268 0234 1800DC8F 		lw	$28,24($fp)
 269              	$L9:
  31:apps/WikiUtil.c **** }
 270              		.loc 2 32 0
 271 0238 21E8C003 		move	$sp,$fp
 272 023c 2C00BF8F 		lw	$31,44($sp)
 273 0240 2800BE8F 		lw	$fp,40($sp)
 274 0244 3000BD27 		addiu	$sp,$sp,48
 275 0248 0800E003 		j	$31
 276 024c 00000000 		nop
 277              	
 278              		.set	macro
 279              		.set	reorder
 280              		.end	GetString
 281              	$LFE5:
 283              		.align	2
 284              	$LFB6 = .
  32:apps/WikiUtil.c **** 
  33:apps/WikiUtil.c **** static inline uint32_t GetStringLen(uint32_t offset, char *schema, int field) {
 285              		.loc 2 34 0
 286              		.set	nomips16
 287              		.ent	GetStringLen
 289              	GetStringLen:
 290              		.frame	$fp,40,$31		# vars= 8, regs= 2/0, args= 16, gp= 8
 291              		.mask	0xc0000000,-4
 292              		.fmask	0x00000000,0
 293              		.set	noreorder
 294              		.set	nomacro
 295              		
 296 0250 D8FFBD27 		addiu	$sp,$sp,-40
 297              	$LCFI15:
 298 0254 2400BFAF 		sw	$31,36($sp)
 299              	$LCFI16:
 300 0258 2000BEAF 		sw	$fp,32($sp)
 301              	$LCFI17:
 302 025c 21F0A003 		move	$fp,$sp
 303              	$LCFI18:
 304 0260 00001C3C 		lui	$28,%hi(__gnu_local_gp)
 305 0264 00009C27 		addiu	$28,$28,%lo(__gnu_local_gp)
 306 0268 1000BCAF 		.cprestore	16
 307 026c 2800C4AF 		sw	$4,40($fp)
 308 0270 2C00C5AF 		sw	$5,44($fp)
 309 0274 3000C6AF 		sw	$6,48($fp)
  34:apps/WikiUtil.c ****   FILE *blob = FileGetHandle();
 310              		.loc 2 35 0
 311 0278 0000828F 		lw	$2,%call16(FileGetHandle)($28)
 312 027c 00000000 		nop
 313 0280 21C84000 		move	$25,$2
 314 0284 09F82003 		jalr	$25
 315 0288 00000000 		nop
 316              	
 317 028c 1000DC8F 		lw	$28,16($fp)
 318 0290 1800C2AF 		sw	$2,24($fp)
  35:apps/WikiUtil.c ****   FileSeek(offset);
 319              		.loc 2 36 0
 320 0294 2800C48F 		lw	$4,40($fp)
 321 0298 0000828F 		lw	$2,%call16(FileSeek)($28)
 322 029c 00000000 		nop
 323 02a0 21C84000 		move	$25,$2
 324 02a4 09F82003 		jalr	$25
 325 02a8 00000000 		nop
 326              	
 327 02ac 1000DC8F 		lw	$28,16($fp)
  36:apps/WikiUtil.c ****   return SchemaGetStringLen(blob, schema, field);
 328              		.loc 2 37 0
 329 02b0 1800C48F 		lw	$4,24($fp)
 330 02b4 2C00C58F 		lw	$5,44($fp)
 331 02b8 3000C68F 		lw	$6,48($fp)
 332 02bc 0000828F 		lw	$2,%call16(SchemaGetStringLen)($28)
 333 02c0 00000000 		nop
 334 02c4 21C84000 		move	$25,$2
 335 02c8 09F82003 		jalr	$25
 336 02cc 00000000 		nop
 337              	
 338 02d0 1000DC8F 		lw	$28,16($fp)
  37:apps/WikiUtil.c **** }
 339              		.loc 2 38 0
 340 02d4 21E8C003 		move	$sp,$fp
 341 02d8 2400BF8F 		lw	$31,36($sp)
 342 02dc 2000BE8F 		lw	$fp,32($sp)
 343 02e0 2800BD27 		addiu	$sp,$sp,40
 344 02e4 0800E003 		j	$31
 345 02e8 00000000 		nop
 346              	
 347              		.set	macro
 348              		.set	reorder
 349              		.end	GetStringLen
 350              	$LFE6:
 352              		.align	2
 353              	$LFB7 = .
  38:apps/WikiUtil.c **** 
  39:apps/WikiUtil.c **** static inline char ToUpper(char a) {
 354              		.loc 2 40 0
 355              		.set	nomips16
 356              		.ent	ToUpper
 358              	ToUpper:
 359              		.frame	$fp,8,$31		# vars= 0, regs= 1/0, args= 0, gp= 0
 360              		.mask	0x40000000,-4
 361              		.fmask	0x00000000,0
 362              		.set	noreorder
 363              		.set	nomacro
 364              		
 365 02ec F8FFBD27 		addiu	$sp,$sp,-8
 366              	$LCFI19:
 367 02f0 0400BEAF 		sw	$fp,4($sp)
 368              	$LCFI20:
 369 02f4 21F0A003 		move	$fp,$sp
 370              	$LCFI21:
 371 02f8 21108000 		move	$2,$4
 372 02fc 0800C2A3 		sb	$2,8($fp)
  40:apps/WikiUtil.c ****   if ((a >= 'a') && (a <= 'z'))
 373              		.loc 2 41 0
 374 0300 0800C283 		lb	$2,8($fp)
 375 0304 00000000 		nop
 376 0308 61004228 		slt	$2,$2,97
 377 030c 0E004014 		bne	$2,$0,$L14
 378 0310 00000000 		nop
 379              	
 380 0314 0800C283 		lb	$2,8($fp)
 381 0318 00000000 		nop
 382 031c 7B004228 		slt	$2,$2,123
 383 0320 09004010 		beq	$2,$0,$L14
 384 0324 00000000 		nop
 385              	
  41:apps/WikiUtil.c ****     return a - ('a' - 'A');
 386              		.loc 2 42 0
 387 0328 0800C293 		lbu	$2,8($fp)
 388 032c 00000000 		nop
 389 0330 E0FF4224 		addiu	$2,$2,-32
 390 0334 FF004230 		andi	$2,$2,0x00ff
 391 0338 00160200 		sll	$2,$2,24
 392 033c 03160200 		sra	$2,$2,24
 393 0340 02000010 		b	$L15
 394 0344 00000000 		nop
 395              	
 396              	$L14:
  42:apps/WikiUtil.c ****   else
  43:apps/WikiUtil.c ****     return a;
 397              		.loc 2 44 0
 398 0348 0800C283 		lb	$2,8($fp)
 399              	$L15:
  44:apps/WikiUtil.c **** }
 400              		.loc 2 45 0
 401 034c 21E8C003 		move	$sp,$fp
 402 0350 0400BE8F 		lw	$fp,4($sp)
 403 0354 0800BD27 		addiu	$sp,$sp,8
 404 0358 0800E003 		j	$31
 405 035c 00000000 		nop
 406              	
 407              		.set	macro
 408              		.set	reorder
 409              		.end	ToUpper
 410              	$LFE7:
 412              		.rdata
 413              		.align	2
 414              	$LC0:
 415 0000 6200     		.ascii	"b\000"
 416 0002 0000     		.align	2
 417              	$LC1:
 418 0004 61707073 		.ascii	"apps/WikiUtil.c\000"
 418      2F57696B 
 418      69557469 
 418      6C2E6300 
 419              		.text
 420              		.align	2
 421              		.globl	CalcUpperCRC
 422              	$LFB8 = .
  45:apps/WikiUtil.c **** 
  46:apps/WikiUtil.c **** KeyT CalcUpperCRC(const char *b) {
 423              		.loc 2 47 0
 424              		.set	nomips16
 425              		.ent	CalcUpperCRC
 427              	CalcUpperCRC:
 428              		.frame	$fp,88,$31		# vars= 48, regs= 3/0, args= 16, gp= 8
 429              		.mask	0xc0010000,-4
 430              		.fmask	0x00000000,0
 431              		.set	noreorder
 432              		.set	nomacro
 433              		
 434 0360 A8FFBD27 		addiu	$sp,$sp,-88
 435              	$LCFI22:
 436 0364 5400BFAF 		sw	$31,84($sp)
 437              	$LCFI23:
 438 0368 5000BEAF 		sw	$fp,80($sp)
 439              	$LCFI24:
 440 036c 4C00B0AF 		sw	$16,76($sp)
 441              	$LCFI25:
 442 0370 21F0A003 		move	$fp,$sp
 443              	$LCFI26:
 444 0374 00001C3C 		lui	$28,%hi(__gnu_local_gp)
 445 0378 00009C27 		addiu	$28,$28,%lo(__gnu_local_gp)
 446 037c 1000BCAF 		.cprestore	16
 447 0380 5800C4AF 		sw	$4,88($fp)
  47:apps/WikiUtil.c ****   assert(b);
 448              		.loc 2 48 0
 449 0384 5800C28F 		lw	$2,88($fp)
 450 0388 00000000 		nop
 451 038c 0D004014 		bne	$2,$0,$L18
 452 0390 00000000 		nop
 453              	
 454 0394 0000023C 		lui	$2,%hi($LC0)
 455 0398 00004424 		addiu	$4,$2,%lo($LC0)
 456 039c 0000023C 		lui	$2,%hi($LC1)
 457 03a0 04004524 		addiu	$5,$2,%lo($LC1)
 458 03a4 30000624 		li	$6,48			# 0x30
 459 03a8 0000023C 		lui	$2,%hi(__PRETTY_FUNCTION__.2545)
 460 03ac C4004724 		addiu	$7,$2,%lo(__PRETTY_FUNCTION__.2545)
 461 03b0 0000828F 		lw	$2,%call16(__assert_fail)($28)
 462 03b4 00000000 		nop
 463 03b8 21C84000 		move	$25,$2
 464 03bc 09F82003 		jalr	$25
 465 03c0 00000000 		nop
 466              	
 467              	$L18:
  48:apps/WikiUtil.c ****   int blen = strlen(b);
 468              		.loc 2 49 0
 469 03c4 5800C48F 		lw	$4,88($fp)
 470 03c8 0000828F 		lw	$2,%call16(strlen)($28)
 471 03cc 00000000 		nop
 472 03d0 21C84000 		move	$25,$2
 473 03d4 09F82003 		jalr	$25
 474 03d8 00000000 		nop
 475              	
 476 03dc 1000DC8F 		lw	$28,16($fp)
 477 03e0 1C00C2AF 		sw	$2,28($fp)
  49:apps/WikiUtil.c ****   blen = blen > MORSEBOX_MAX-1 ? MORSEBOX_MAX-1 : blen;
 478              		.loc 2 50 0
 479 03e4 1C00C28F 		lw	$2,28($fp)
 480 03e8 00000000 		nop
 481 03ec 28004328 		slt	$3,$2,40
 482 03f0 02006014 		bne	$3,$0,$L19
 483 03f4 00000000 		nop
 484              	
 485 03f8 27000224 		li	$2,39			# 0x27
 486              	$L19:
 487 03fc 1C00C2AF 		sw	$2,28($fp)
 488              	$LBB2 = .
  50:apps/WikiUtil.c ****   char up[MORSEBOX_MAX];
  51:apps/WikiUtil.c ****   for (int i=0; b[i] != 0x0; ++i)
 489              		.loc 2 52 0
 490 0400 1800C0AF 		sw	$0,24($fp)
 491 0404 14000010 		b	$L20
 492 0408 00000000 		nop
 493              	
 494              	$L21:
  52:apps/WikiUtil.c ****     up[i] = ToUpper(b[i]);
 495              		.loc 2 53 0
 496 040c 1800D08F 		lw	$16,24($fp)
 497 0410 1800C28F 		lw	$2,24($fp)
 498 0414 5800C38F 		lw	$3,88($fp)
 499 0418 00000000 		nop
 500 041c 21106200 		addu	$2,$3,$2
 501 0420 00004280 		lb	$2,0($2)
 502 0424 00000000 		nop
 503 0428 21204000 		move	$4,$2
 504              		.option	pic0
 505 042c BB00000C 		jal	ToUpper
 506 0430 00000000 		nop
 507              	
 508              		.option	pic2
 509 0434 1000DC8F 		lw	$28,16($fp)
 510 0438 21184000 		move	$3,$2
 511 043c 1800C227 		addiu	$2,$fp,24
 512 0440 21105000 		addu	$2,$2,$16
 513 0444 080043A0 		sb	$3,8($2)
  52:apps/WikiUtil.c ****     up[i] = ToUpper(b[i]);
 514              		.loc 2 52 0
 515 0448 1800C28F 		lw	$2,24($fp)
 516 044c 00000000 		nop
 517 0450 01004224 		addiu	$2,$2,1
 518 0454 1800C2AF 		sw	$2,24($fp)
 519              	$L20:
 520 0458 1800C28F 		lw	$2,24($fp)
 521 045c 5800C38F 		lw	$3,88($fp)
 522 0460 00000000 		nop
 523 0464 21106200 		addu	$2,$3,$2
 524 0468 00004280 		lb	$2,0($2)
 525 046c 00000000 		nop
 526 0470 E6FF4014 		bne	$2,$0,$L21
 527 0474 00000000 		nop
 528              	
 529              	$LBE2 = .
  53:apps/WikiUtil.c ****   //  up[i] = toupper(b[i]);
  54:apps/WikiUtil.c ****   up[blen] = 0x0;
 530              		.loc 2 55 0
 531 0478 1C00C28F 		lw	$2,28($fp)
 532 047c 1800C327 		addiu	$3,$fp,24
 533 0480 21106200 		addu	$2,$3,$2
 534 0484 080040A0 		sb	$0,8($2)
  55:apps/WikiUtil.c ****   return CalcCRC(up, blen);
 535              		.loc 2 56 0
 536 0488 2000C227 		addiu	$2,$fp,32
 537 048c 21204000 		move	$4,$2
 538 0490 1C00C58F 		lw	$5,28($fp)
 539 0494 0000828F 		lw	$2,%call16(CalcCRC)($28)
 540 0498 00000000 		nop
 541 049c 21C84000 		move	$25,$2
 542 04a0 09F82003 		jalr	$25
 543 04a4 00000000 		nop
 544              	
 545 04a8 1000DC8F 		lw	$28,16($fp)
  56:apps/WikiUtil.c **** }
 546              		.loc 2 57 0
 547 04ac 21E8C003 		move	$sp,$fp
 548 04b0 5400BF8F 		lw	$31,84($sp)
 549 04b4 5000BE8F 		lw	$fp,80($sp)
 550 04b8 4C00B08F 		lw	$16,76($sp)
 551 04bc 5800BD27 		addiu	$sp,$sp,88
 552 04c0 0800E003 		j	$31
 553 04c4 00000000 		nop
 554              	
 555              		.set	macro
 556              		.set	reorder
 557              		.end	CalcUpperCRC
 558              	$LFE8:
 560              	
 561              		.comm	tocLastCur,24,4
 562              		.rdata
 563              		.align	2
 564              	$LC2:
 565 0014 69497373 		.ascii	"iIss\000"
 565      00
 566              		.text
 567              		.align	2
 568              		.globl	TocNext
 569              	$LFB9 = .
  57:apps/WikiUtil.c **** 
  58:apps/WikiUtil.c **** Cursor tocLastCur;
  59:apps/WikiUtil.c **** 
  60:apps/WikiUtil.c **** char TocNext(ListGen *gen, char *outBuf, unsigned char outBufLen) {
 570              		.loc 2 61 0
 571              		.set	nomips16
 572              		.ent	TocNext
 574              	TocNext:
 575              		.frame	$fp,64,$31		# vars= 24, regs= 2/0, args= 24, gp= 8
 576              		.mask	0xc0000000,-4
 577              		.fmask	0x00000000,0
 578              		.set	noreorder
 579              		.set	nomacro
 580              		
 581 04c8 C0FFBD27 		addiu	$sp,$sp,-64
 582              	$LCFI27:
 583 04cc 3C00BFAF 		sw	$31,60($sp)
 584              	$LCFI28:
 585 04d0 3800BEAF 		sw	$fp,56($sp)
 586              	$LCFI29:
 587 04d4 21F0A003 		move	$fp,$sp
 588              	$LCFI30:
 589 04d8 00001C3C 		lui	$28,%hi(__gnu_local_gp)
 590 04dc 00009C27 		addiu	$28,$28,%lo(__gnu_local_gp)
 591 04e0 1800BCAF 		.cprestore	24
 592 04e4 4000C4AF 		sw	$4,64($fp)
 593 04e8 4400C5AF 		sw	$5,68($fp)
 594 04ec 2110C000 		move	$2,$6
 595 04f0 4800C2A3 		sb	$2,72($fp)
  61:apps/WikiUtil.c ****   TocView *wa = (TocView *) gen->userData;
 596              		.loc 2 62 0
 597 04f4 4000C28F 		lw	$2,64($fp)
 598 04f8 00000000 		nop
 599 04fc 0800428C 		lw	$2,8($2)
 600 0500 00000000 		nop
 601 0504 3000C2AF 		sw	$2,48($fp)
 602 0508 02000010 		b	$L27
 603 050c 00000000 		nop
 604              	
 605              	$L31:
  62:apps/WikiUtil.c ****   while (1) {
  63:apps/WikiUtil.c ****     CursorDup(&tocLastCur, &wa->cur);
  64:apps/WikiUtil.c ****     BAT found = CursorNext(&wa->cur);
  65:apps/WikiUtil.c ****     if (found == BAInvalid)
  66:apps/WikiUtil.c ****       return 0;
  67:apps/WikiUtil.c ****     FileOpenRO(((DbContext*)wa->pageTree.userData)->blobFname);
  68:apps/WikiUtil.c ****     //ERRORassert();
  69:apps/WikiUtil.c ****     int level = GetInt(found, WIKI_SCHEMA, WIKI_LEVEL);
  70:apps/WikiUtil.c ****     int parent = GetUInt(found, WIKI_SCHEMA, WIKI_PARENT);
  71:apps/WikiUtil.c ****     if ((level == 0) && (parent != 0)) // redirect to self - filter
  72:apps/WikiUtil.c ****       continue;
  73:apps/WikiUtil.c ****     for (int i=0; i<level; ++i)
  74:apps/WikiUtil.c ****       outBuf[i] = '+';
  75:apps/WikiUtil.c ****     GetString(found, WIKI_SCHEMA, WIKI_TITLE, outBuf + level, outBufLen - level);
  76:apps/WikiUtil.c ****     //ERRORassert();
  77:apps/WikiUtil.c ****     return 1;
  78:apps/WikiUtil.c ****   }
 606              		.loc 2 79 0
 607 0510 00000000 		nop
 608              	$L27:
 609              	$LBB3 = .
  64:apps/WikiUtil.c ****     CursorDup(&tocLastCur, &wa->cur);
 610              		.loc 2 64 0
 611 0514 3000C28F 		lw	$2,48($fp)
 612 0518 00000000 		nop
 613 051c BC004224 		addiu	$2,$2,188
 614 0520 0000848F 		lw	$4,%got(tocLastCur)($28)
 615 0524 21284000 		move	$5,$2
 616 0528 0000828F 		lw	$2,%call16(CursorDup)($28)
 617 052c 00000000 		nop
 618 0530 21C84000 		move	$25,$2
 619 0534 09F82003 		jalr	$25
 620 0538 00000000 		nop
 621              	
 622 053c 1800DC8F 		lw	$28,24($fp)
  65:apps/WikiUtil.c ****     BAT found = CursorNext(&wa->cur);
 623              		.loc 2 65 0
 624 0540 3000C28F 		lw	$2,48($fp)
 625 0544 00000000 		nop
 626 0548 BC004224 		addiu	$2,$2,188
 627 054c 21204000 		move	$4,$2
 628 0550 0000828F 		lw	$2,%call16(CursorNext)($28)
 629 0554 00000000 		nop
 630 0558 21C84000 		move	$25,$2
 631 055c 09F82003 		jalr	$25
 632 0560 00000000 		nop
 633              	
 634 0564 1800DC8F 		lw	$28,24($fp)
 635 0568 2C00C2AF 		sw	$2,44($fp)
  66:apps/WikiUtil.c ****     if (found == BAInvalid)
 636              		.loc 2 66 0
 637 056c 2C00C38F 		lw	$3,44($fp)
 638 0570 FFFF0224 		li	$2,-1			# 0xffffffffffffffff
 639 0574 04006214 		bne	$3,$2,$L24
 640 0578 00000000 		nop
 641              	
  67:apps/WikiUtil.c ****       return 0;
 642              		.loc 2 67 0
 643 057c 21100000 		move	$2,$0
 644 0580 4B000010 		b	$L25
 645 0584 00000000 		nop
 646              	
 647              	$L24:
  68:apps/WikiUtil.c ****     FileOpenRO(((DbContext*)wa->pageTree.userData)->blobFname);
 648              		.loc 2 68 0
 649 0588 3000C28F 		lw	$2,48($fp)
 650 058c 00000000 		nop
 651 0590 0400428C 		lw	$2,4($2)
 652 0594 00000000 		nop
 653 0598 0800428C 		lw	$2,8($2)
 654 059c 00000000 		nop
 655 05a0 21204000 		move	$4,$2
 656 05a4 0000828F 		lw	$2,%call16(FileOpenRO)($28)
 657 05a8 00000000 		nop
 658 05ac 21C84000 		move	$25,$2
 659 05b0 09F82003 		jalr	$25
 660 05b4 00000000 		nop
 661              	
 662 05b8 1800DC8F 		lw	$28,24($fp)
  70:apps/WikiUtil.c ****     int level = GetInt(found, WIKI_SCHEMA, WIKI_LEVEL);
 663              		.loc 2 70 0
 664 05bc 2C00C48F 		lw	$4,44($fp)
 665 05c0 0000023C 		lui	$2,%hi($LC2)
 666 05c4 14004524 		addiu	$5,$2,%lo($LC2)
 667 05c8 21300000 		move	$6,$0
 668              		.option	pic0
 669 05cc 3500000C 		jal	GetInt
 670 05d0 00000000 		nop
 671              	
 672              		.option	pic2
 673 05d4 1800DC8F 		lw	$28,24($fp)
 674 05d8 2800C2AF 		sw	$2,40($fp)
  71:apps/WikiUtil.c ****     int parent = GetUInt(found, WIKI_SCHEMA, WIKI_PARENT);
 675              		.loc 2 71 0
 676 05dc 2C00C48F 		lw	$4,44($fp)
 677 05e0 0000023C 		lui	$2,%hi($LC2)
 678 05e4 14004524 		addiu	$5,$2,%lo($LC2)
 679 05e8 01000624 		li	$6,1			# 0x1
 680              		.option	pic0
 681 05ec 0E00000C 		jal	GetUInt
 682 05f0 00000000 		nop
 683              	
 684              		.option	pic2
 685 05f4 1800DC8F 		lw	$28,24($fp)
 686 05f8 2400C2AF 		sw	$2,36($fp)
  72:apps/WikiUtil.c ****     if ((level == 0) && (parent != 0)) // redirect to self - filter
 687              		.loc 2 72 0
 688 05fc 2800C28F 		lw	$2,40($fp)
 689 0600 00000000 		nop
 690 0604 05004014 		bne	$2,$0,$L26
 691 0608 00000000 		nop
 692              	
 693 060c 2400C28F 		lw	$2,36($fp)
 694 0610 00000000 		nop
 695 0614 BEFF4014 		bne	$2,$0,$L31
 696 0618 00000000 		nop
 697              	
 698              	$L26:
 699              	$LBB4 = .
  74:apps/WikiUtil.c ****     for (int i=0; i<level; ++i)
 700              		.loc 2 74 0
 701 061c 2000C0AF 		sw	$0,32($fp)
 702 0620 0B000010 		b	$L28
 703 0624 00000000 		nop
 704              	
 705              	$L29:
  75:apps/WikiUtil.c ****       outBuf[i] = '+';
 706              		.loc 2 75 0
 707 0628 2000C28F 		lw	$2,32($fp)
 708 062c 4400C38F 		lw	$3,68($fp)
 709 0630 00000000 		nop
 710 0634 21106200 		addu	$2,$3,$2
 711 0638 2B000324 		li	$3,43			# 0x2b
 712 063c 000043A0 		sb	$3,0($2)
  74:apps/WikiUtil.c ****     for (int i=0; i<level; ++i)
 713              		.loc 2 74 0
 714 0640 2000C28F 		lw	$2,32($fp)
 715 0644 00000000 		nop
 716 0648 01004224 		addiu	$2,$2,1
 717 064c 2000C2AF 		sw	$2,32($fp)
 718              	$L28:
 719 0650 2000C38F 		lw	$3,32($fp)
 720 0654 2800C28F 		lw	$2,40($fp)
 721 0658 00000000 		nop
 722 065c 2A106200 		slt	$2,$3,$2
 723 0660 F1FF4014 		bne	$2,$0,$L29
 724 0664 00000000 		nop
 725              	
 726              	$LBE4 = .
  76:apps/WikiUtil.c ****     GetString(found, WIKI_SCHEMA, WIKI_TITLE, outBuf + level, outBufLen - level);
 727              		.loc 2 76 0
 728 0668 2800C28F 		lw	$2,40($fp)
 729 066c 4400C38F 		lw	$3,68($fp)
 730 0670 00000000 		nop
 731 0674 21106200 		addu	$2,$3,$2
 732 0678 4800C493 		lbu	$4,72($fp)
 733 067c 2800C38F 		lw	$3,40($fp)
 734 0680 00000000 		nop
 735 0684 23188300 		subu	$3,$4,$3
 736 0688 1000A3AF 		sw	$3,16($sp)
 737 068c 2C00C48F 		lw	$4,44($fp)
 738 0690 0000033C 		lui	$3,%hi($LC2)
 739 0694 14006524 		addiu	$5,$3,%lo($LC2)
 740 0698 02000624 		li	$6,2			# 0x2
 741 069c 21384000 		move	$7,$2
 742              		.option	pic0
 743 06a0 5E00000C 		jal	GetString
 744 06a4 00000000 		nop
 745              	
 746              		.option	pic2
 747 06a8 1800DC8F 		lw	$28,24($fp)
  78:apps/WikiUtil.c ****     return 1;
 748              		.loc 2 78 0
 749 06ac 01000224 		li	$2,1			# 0x1
 750              	$L25:
 751              	$LBE3 = .
  79:apps/WikiUtil.c **** }
 752              		.loc 2 80 0
 753 06b0 21E8C003 		move	$sp,$fp
 754 06b4 3C00BF8F 		lw	$31,60($sp)
 755 06b8 3800BE8F 		lw	$fp,56($sp)
 756 06bc 4000BD27 		addiu	$sp,$sp,64
 757 06c0 0800E003 		j	$31
 758 06c4 00000000 		nop
 759              	
 760              		.set	macro
 761              		.set	reorder
 762              		.end	TocNext
 763              	$LFE9:
 765              		.align	2
 766              		.globl	TocRestart
 767              	$LFB10 = .
  80:apps/WikiUtil.c **** 
  81:apps/WikiUtil.c **** void TocRestart(ListGen *gen) {
 768              		.loc 2 82 0
 769              		.set	nomips16
 770              		.ent	TocRestart
 772              	TocRestart:
 773              		.frame	$fp,40,$31		# vars= 8, regs= 2/0, args= 16, gp= 8
 774              		.mask	0xc0000000,-4
 775              		.fmask	0x00000000,0
 776              		.set	noreorder
 777              		.set	nomacro
 778              		
 779 06c8 D8FFBD27 		addiu	$sp,$sp,-40
 780              	$LCFI31:
 781 06cc 2400BFAF 		sw	$31,36($sp)
 782              	$LCFI32:
 783 06d0 2000BEAF 		sw	$fp,32($sp)
 784              	$LCFI33:
 785 06d4 21F0A003 		move	$fp,$sp
 786              	$LCFI34:
 787 06d8 00001C3C 		lui	$28,%hi(__gnu_local_gp)
 788 06dc 00009C27 		addiu	$28,$28,%lo(__gnu_local_gp)
 789 06e0 1000BCAF 		.cprestore	16
 790 06e4 2800C4AF 		sw	$4,40($fp)
  82:apps/WikiUtil.c ****   TocView *wa = (TocView *) gen->userData;
 791              		.loc 2 83 0
 792 06e8 2800C28F 		lw	$2,40($fp)
 793 06ec 00000000 		nop
 794 06f0 0800428C 		lw	$2,8($2)
 795 06f4 00000000 		nop
 796 06f8 1800C2AF 		sw	$2,24($fp)
  83:apps/WikiUtil.c ****   CursorDup(&wa->cur, &wa->startCur);
 797              		.loc 2 84 0
 798 06fc 1800C28F 		lw	$2,24($fp)
 799 0700 00000000 		nop
 800 0704 BC004324 		addiu	$3,$2,188
 801 0708 1800C28F 		lw	$2,24($fp)
 802 070c 00000000 		nop
 803 0710 A4004224 		addiu	$2,$2,164
 804 0714 21206000 		move	$4,$3
 805 0718 21284000 		move	$5,$2
 806 071c 0000828F 		lw	$2,%call16(CursorDup)($28)
 807 0720 00000000 		nop
 808 0724 21C84000 		move	$25,$2
 809 0728 09F82003 		jalr	$25
 810 072c 00000000 		nop
 811              	
 812 0730 1000DC8F 		lw	$28,16($fp)
  84:apps/WikiUtil.c **** }
 813              		.loc 2 85 0
 814 0734 21E8C003 		move	$sp,$fp
 815 0738 2400BF8F 		lw	$31,36($sp)
 816 073c 2000BE8F 		lw	$fp,32($sp)
 817 0740 2800BD27 		addiu	$sp,$sp,40
 818 0744 0800E003 		j	$31
 819 0748 00000000 		nop
 820              	
 821              		.set	macro
 822              		.set	reorder
 823              		.end	TocRestart
 824              	$LFE10:
 826              		.align	2
 827              		.globl	TocInit
 828              	$LFB11 = .
  85:apps/WikiUtil.c **** 
  86:apps/WikiUtil.c **** void TocInit(TocView *toc, KeyT titleCrc, DbContext *pageContext, unsigned char startRow, unsigned 
 829              		.loc 2 87 0
 830              		.set	nomips16
 831              		.ent	TocInit
 833              	TocInit:
 834              		.frame	$fp,128,$31		# vars= 56, regs= 3/0, args= 48, gp= 8
 835              		.mask	0xc0010000,-4
 836              		.fmask	0x00000000,0
 837              		.set	noreorder
 838              		.set	nomacro
 839              		
 840 074c 80FFBD27 		addiu	$sp,$sp,-128
 841              	$LCFI35:
 842 0750 7C00BFAF 		sw	$31,124($sp)
 843              	$LCFI36:
 844 0754 7800BEAF 		sw	$fp,120($sp)
 845              	$LCFI37:
 846 0758 7400B0AF 		sw	$16,116($sp)
 847              	$LCFI38:
 848 075c 21F0A003 		move	$fp,$sp
 849              	$LCFI39:
 850 0760 00001C3C 		lui	$28,%hi(__gnu_local_gp)
 851 0764 00009C27 		addiu	$28,$28,%lo(__gnu_local_gp)
 852 0768 3000BCAF 		.cprestore	48
 853 076c 8000C4AF 		sw	$4,128($fp)
 854 0770 8400C5AF 		sw	$5,132($fp)
 855 0774 8800C6AF 		sw	$6,136($fp)
 856 0778 2118E000 		move	$3,$7
 857 077c 9000C28F 		lw	$2,144($fp)
 858 0780 8C00C3A3 		sb	$3,140($fp)
 859 0784 5000C2A3 		sb	$2,80($fp)
  87:apps/WikiUtil.c ****   TreeInit(&toc->pageTree, pageContext);
 860              		.loc 2 88 0
 861 0788 8000C28F 		lw	$2,128($fp)
 862 078c 00000000 		nop
 863 0790 21204000 		move	$4,$2
 864 0794 8800C58F 		lw	$5,136($fp)
 865 0798 0000828F 		lw	$2,%call16(TreeInit)($28)
 866 079c 00000000 		nop
 867 07a0 21C84000 		move	$25,$2
 868 07a4 09F82003 		jalr	$25
 869 07a8 00000000 		nop
 870              	
 871 07ac 3000DC8F 		lw	$28,48($fp)
  88:apps/WikiUtil.c ****   toc->titleCrc = titleCrc;
 872              		.loc 2 89 0
 873 07b0 8000C28F 		lw	$2,128($fp)
 874 07b4 8400C38F 		lw	$3,132($fp)
 875 07b8 00000000 		nop
 876 07bc 080043AC 		sw	$3,8($2)
  89:apps/WikiUtil.c ****   ListGen tocGen = ListGenCreate(TocNext, TocRestart, (void*) toc);
 877              		.loc 2 90 0
 878 07c0 8000C28F 		lw	$2,128($fp)
 879 07c4 3800C327 		addiu	$3,$fp,56
 880 07c8 21206000 		move	$4,$3
 881 07cc 0000033C 		lui	$3,%hi(TocNext)
 882 07d0 00006524 		addiu	$5,$3,%lo(TocNext)
 883 07d4 0000033C 		lui	$3,%hi(TocRestart)
 884 07d8 00006624 		addiu	$6,$3,%lo(TocRestart)
 885 07dc 21384000 		move	$7,$2
 886 07e0 0000828F 		lw	$2,%call16(ListGenCreate)($28)
 887 07e4 00000000 		nop
 888 07e8 21C84000 		move	$25,$2
 889 07ec 09F82003 		jalr	$25
 890 07f0 00000000 		nop
 891              	
 892 07f4 3000DC8F 		lw	$28,48($fp)
  90:apps/WikiUtil.c ****   ListCmdrInit(&toc->cmdr, tocGen, startRow, nRows, 1, nRows/2);
 893              		.loc 2 91 0
 894 07f8 8000C28F 		lw	$2,128($fp)
 895 07fc 00000000 		nop
 896 0800 0C004224 		addiu	$2,$2,12
 897 0804 8C00C593 		lbu	$5,140($fp)
 898 0808 5000C493 		lbu	$4,80($fp)
 899 080c 5000C393 		lbu	$3,80($fp)
 900 0810 00000000 		nop
 901 0814 42180300 		srl	$3,$3,1
 902 0818 FF006330 		andi	$3,$3,0x00ff
 903 081c 1C00A5AF 		sw	$5,28($sp)
 904 0820 2000A4AF 		sw	$4,32($sp)
 905 0824 01000424 		li	$4,1			# 0x1
 906 0828 2400A4AF 		sw	$4,36($sp)
 907 082c 2800A3AF 		sw	$3,40($sp)
 908 0830 4400C58F 		lw	$5,68($fp)
 909 0834 4800C48F 		lw	$4,72($fp)
 910 0838 4C00C38F 		lw	$3,76($fp)
 911 083c 1000A5AF 		sw	$5,16($sp)
 912 0840 1400A4AF 		sw	$4,20($sp)
 913 0844 1800A3AF 		sw	$3,24($sp)
 914 0848 3800C58F 		lw	$5,56($fp)
 915 084c 3C00C68F 		lw	$6,60($fp)
 916 0850 4000C78F 		lw	$7,64($fp)
 917 0854 21204000 		move	$4,$2
 918 0858 0000828F 		lw	$2,%call16(ListCmdrInit)($28)
 919 085c 00000000 		nop
 920 0860 21C84000 		move	$25,$2
 921 0864 09F82003 		jalr	$25
 922 0868 00000000 		nop
 923              	
 924 086c 3000DC8F 		lw	$28,48($fp)
  91:apps/WikiUtil.c ****   toc->startCur = SelectConsecutiveKeys(toc->pageTree, titleCrc);
 925              		.loc 2 92 0
 926 0870 8000D08F 		lw	$16,128($fp)
 927 0874 5800C327 		addiu	$3,$fp,88
 928 0878 8000C28F 		lw	$2,128($fp)
 929 087c 21206000 		move	$4,$3
 930 0880 0000458C 		lw	$5,0($2)
 931 0884 0400468C 		lw	$6,4($2)
 932 0888 8400C78F 		lw	$7,132($fp)
 933 088c 0000828F 		lw	$2,%call16(SelectConsecutiveKeys)($28)
 934 0890 00000000 		nop
 935 0894 21C84000 		move	$25,$2
 936 0898 09F82003 		jalr	$25
 937 089c 00000000 		nop
 938              	
 939 08a0 3000DC8F 		lw	$28,48($fp)
 940 08a4 5800C78F 		lw	$7,88($fp)
 941 08a8 5C00C68F 		lw	$6,92($fp)
 942 08ac 6000C58F 		lw	$5,96($fp)
 943 08b0 6400C48F 		lw	$4,100($fp)
 944 08b4 6800C38F 		lw	$3,104($fp)
 945 08b8 6C00C28F 		lw	$2,108($fp)
 946 08bc A40007AE 		sw	$7,164($16)
 947 08c0 A80006AE 		sw	$6,168($16)
 948 08c4 AC0005AE 		sw	$5,172($16)
 949 08c8 B00004AE 		sw	$4,176($16)
 950 08cc B40003AE 		sw	$3,180($16)
 951 08d0 B80002AE 		sw	$2,184($16)
  92:apps/WikiUtil.c ****   ListGenRestart(&toc->cmdr.filter.gen);
 952              		.loc 2 93 0
 953 08d4 8000C28F 		lw	$2,128($fp)
 954 08d8 00000000 		nop
 955 08dc 48004224 		addiu	$2,$2,72
 956 08e0 21204000 		move	$4,$2
 957 08e4 0000828F 		lw	$2,%call16(ListGenRestart)($28)
 958 08e8 00000000 		nop
 959 08ec 21C84000 		move	$25,$2
 960 08f0 09F82003 		jalr	$25
 961 08f4 00000000 		nop
 962              	
 963 08f8 3000DC8F 		lw	$28,48($fp)
  93:apps/WikiUtil.c **** }
 964              		.loc 2 94 0
 965 08fc 21E8C003 		move	$sp,$fp
 966 0900 7C00BF8F 		lw	$31,124($sp)
 967 0904 7800BE8F 		lw	$fp,120($sp)
 968 0908 7400B08F 		lw	$16,116($sp)
 969 090c 8000BD27 		addiu	$sp,$sp,128
 970 0910 0800E003 		j	$31
 971 0914 00000000 		nop
 972              	
 973              		.set	macro
 974              		.set	reorder
 975              		.end	TocInit
 976              	$LFE11:
 978              		.align	2
 979              		.globl	TocDestroy
 980              	$LFB12 = .
  94:apps/WikiUtil.c **** 
  95:apps/WikiUtil.c **** void TocDestroy(TocView *toc) {
 981              		.loc 2 96 0
 982              		.set	nomips16
 983              		.ent	TocDestroy
 985              	TocDestroy:
 986              		.frame	$fp,32,$31		# vars= 0, regs= 2/0, args= 16, gp= 8
 987              		.mask	0xc0000000,-4
 988              		.fmask	0x00000000,0
 989              		.set	noreorder
 990              		.set	nomacro
 991              		
 992 0918 E0FFBD27 		addiu	$sp,$sp,-32
 993              	$LCFI40:
 994 091c 1C00BFAF 		sw	$31,28($sp)
 995              	$LCFI41:
 996 0920 1800BEAF 		sw	$fp,24($sp)
 997              	$LCFI42:
 998 0924 21F0A003 		move	$fp,$sp
 999              	$LCFI43:
 1000 0928 00001C3C 		lui	$28,%hi(__gnu_local_gp)
 1001 092c 00009C27 		addiu	$28,$28,%lo(__gnu_local_gp)
 1002 0930 1000BCAF 		.cprestore	16
 1003 0934 2000C4AF 		sw	$4,32($fp)
  96:apps/WikiUtil.c ****   CursorDestroy(&toc->startCur);
 1004              		.loc 2 97 0
 1005 0938 2000C28F 		lw	$2,32($fp)
 1006 093c 00000000 		nop
 1007 0940 A4004224 		addiu	$2,$2,164
 1008 0944 21204000 		move	$4,$2
 1009 0948 0000828F 		lw	$2,%call16(CursorDestroy)($28)
 1010 094c 00000000 		nop
 1011 0950 21C84000 		move	$25,$2
 1012 0954 09F82003 		jalr	$25
 1013 0958 00000000 		nop
 1014              	
 1015 095c 1000DC8F 		lw	$28,16($fp)
  97:apps/WikiUtil.c ****   CursorDestroy(&toc->cur);
 1016              		.loc 2 98 0
 1017 0960 2000C28F 		lw	$2,32($fp)
 1018 0964 00000000 		nop
 1019 0968 BC004224 		addiu	$2,$2,188
 1020 096c 21204000 		move	$4,$2
 1021 0970 0000828F 		lw	$2,%call16(CursorDestroy)($28)
 1022 0974 00000000 		nop
 1023 0978 21C84000 		move	$25,$2
 1024 097c 09F82003 		jalr	$25
 1025 0980 00000000 		nop
 1026              	
 1027 0984 1000DC8F 		lw	$28,16($fp)
  98:apps/WikiUtil.c **** }
 1028              		.loc 2 99 0
 1029 0988 21E8C003 		move	$sp,$fp
 1030 098c 1C00BF8F 		lw	$31,28($sp)
 1031 0990 1800BE8F 		lw	$fp,24($sp)
 1032 0994 2000BD27 		addiu	$sp,$sp,32
 1033 0998 0800E003 		j	$31
 1034 099c 00000000 		nop
 1035              	
 1036              		.set	macro
 1037              		.set	reorder
 1038              		.end	TocDestroy
 1039              	$LFE12:
 1041              		.align	2
 1042              		.globl	SearchNext
 1043              	$LFB13 = .
  99:apps/WikiUtil.c **** 
 100:apps/WikiUtil.c **** char SearchNext(ListGen *gen, char *outBuf, unsigned char outBufLen) {
 1044              		.loc 2 101 0
 1045              		.set	nomips16
 1046              		.ent	SearchNext
 1048              	SearchNext:
 1049              		.frame	$fp,56,$31		# vars= 16, regs= 2/0, args= 24, gp= 8
 1050              		.mask	0xc0000000,-4
 1051              		.fmask	0x00000000,0
 1052              		.set	noreorder
 1053              		.set	nomacro
 1054              		
 1055 09a0 C8FFBD27 		addiu	$sp,$sp,-56
 1056              	$LCFI44:
 1057 09a4 3400BFAF 		sw	$31,52($sp)
 1058              	$LCFI45:
 1059 09a8 3000BEAF 		sw	$fp,48($sp)
 1060              	$LCFI46:
 1061 09ac 21F0A003 		move	$fp,$sp
 1062              	$LCFI47:
 1063 09b0 00001C3C 		lui	$28,%hi(__gnu_local_gp)
 1064 09b4 00009C27 		addiu	$28,$28,%lo(__gnu_local_gp)
 1065 09b8 1800BCAF 		.cprestore	24
 1066 09bc 3800C4AF 		sw	$4,56($fp)
 1067 09c0 3C00C5AF 		sw	$5,60($fp)
 1068 09c4 2110C000 		move	$2,$6
 1069 09c8 4000C2A3 		sb	$2,64($fp)
 1070 09cc 02000010 		b	$L43
 1071 09d0 00000000 		nop
 1072              	
 1073              	$L47:
 101:apps/WikiUtil.c ****   while (1) {
 102:apps/WikiUtil.c ****     SearchView *wa = (SearchView *) gen->userData;
 103:apps/WikiUtil.c ****     if (CursorIsInvalid(&wa->searchCur))
 104:apps/WikiUtil.c ****       return 0;
 105:apps/WikiUtil.c ****     BAT found = CursorNext(&wa->searchCur);
 106:apps/WikiUtil.c ****     if (found == BAInvalid)
 107:apps/WikiUtil.c ****       return 0;
 108:apps/WikiUtil.c ****     FileOpenRO(((DbContext*)wa->pageTree.userData)->blobFname);
 109:apps/WikiUtil.c ****     //ERRORassert();
 110:apps/WikiUtil.c ****     int level = GetInt(found, WIKI_SCHEMA, WIKI_LEVEL);
 111:apps/WikiUtil.c ****     int parent = GetUInt(found, WIKI_SCHEMA, WIKI_PARENT);
 112:apps/WikiUtil.c ****     if ((level == 0) && (parent != 0)) // redirect to self - filter
 113:apps/WikiUtil.c ****       continue;
 114:apps/WikiUtil.c ****     if (level != 0)
 115:apps/WikiUtil.c ****       return 0;
 116:apps/WikiUtil.c ****     if (outBuf)
 117:apps/WikiUtil.c ****       GetString(found, WIKI_SCHEMA, WIKI_TITLE, outBuf, outBufLen);
 118:apps/WikiUtil.c ****     return 1;
 119:apps/WikiUtil.c ****   }
 1074              		.loc 2 120 0
 1075 09d4 00000000 		nop
 1076              	$L43:
 1077              	$LBB5 = .
 103:apps/WikiUtil.c ****     SearchView *wa = (SearchView *) gen->userData;
 1078              		.loc 2 103 0
 1079 09d8 3800C28F 		lw	$2,56($fp)
 1080 09dc 00000000 		nop
 1081 09e0 0800428C 		lw	$2,8($2)
 1082 09e4 00000000 		nop
 1083 09e8 2C00C2AF 		sw	$2,44($fp)
 104:apps/WikiUtil.c ****     if (CursorIsInvalid(&wa->searchCur))
 1084              		.loc 2 104 0
 1085 09ec 2C00C28F 		lw	$2,44($fp)
 1086 09f0 00000000 		nop
 1087 09f4 D8004224 		addiu	$2,$2,216
 1088 09f8 21204000 		move	$4,$2
 1089              		.option	pic0
 1090 09fc 0000000C 		jal	CursorIsInvalid
 1091 0a00 00000000 		nop
 1092              	
 1093              		.option	pic2
 1094 0a04 1800DC8F 		lw	$28,24($fp)
 1095 0a08 04004010 		beq	$2,$0,$L39
 1096 0a0c 00000000 		nop
 1097              	
 105:apps/WikiUtil.c ****       return 0;
 1098              		.loc 2 105 0
 1099 0a10 21100000 		move	$2,$0
 1100 0a14 4F000010 		b	$L40
 1101 0a18 00000000 		nop
 1102              	
 1103              	$L39:
 106:apps/WikiUtil.c ****     BAT found = CursorNext(&wa->searchCur);
 1104              		.loc 2 106 0
 1105 0a1c 2C00C28F 		lw	$2,44($fp)
 1106 0a20 00000000 		nop
 1107 0a24 D8004224 		addiu	$2,$2,216
 1108 0a28 21204000 		move	$4,$2
 1109 0a2c 0000828F 		lw	$2,%call16(CursorNext)($28)
 1110 0a30 00000000 		nop
 1111 0a34 21C84000 		move	$25,$2
 1112 0a38 09F82003 		jalr	$25
 1113 0a3c 00000000 		nop
 1114              	
 1115 0a40 1800DC8F 		lw	$28,24($fp)
 1116 0a44 2800C2AF 		sw	$2,40($fp)
 107:apps/WikiUtil.c ****     if (found == BAInvalid)
 1117              		.loc 2 107 0
 1118 0a48 2800C38F 		lw	$3,40($fp)
 1119 0a4c FFFF0224 		li	$2,-1			# 0xffffffffffffffff
 1120 0a50 04006214 		bne	$3,$2,$L41
 1121 0a54 00000000 		nop
 1122              	
 108:apps/WikiUtil.c ****       return 0;
 1123              		.loc 2 108 0
 1124 0a58 21100000 		move	$2,$0
 1125 0a5c 3D000010 		b	$L40
 1126 0a60 00000000 		nop
 1127              	
 1128              	$L41:
 109:apps/WikiUtil.c ****     FileOpenRO(((DbContext*)wa->pageTree.userData)->blobFname);
 1129              		.loc 2 109 0
 1130 0a64 2C00C28F 		lw	$2,44($fp)
 1131 0a68 00000000 		nop
 1132 0a6c 0400428C 		lw	$2,4($2)
 1133 0a70 00000000 		nop
 1134 0a74 0800428C 		lw	$2,8($2)
 1135 0a78 00000000 		nop
 1136 0a7c 21204000 		move	$4,$2
 1137 0a80 0000828F 		lw	$2,%call16(FileOpenRO)($28)
 1138 0a84 00000000 		nop
 1139 0a88 21C84000 		move	$25,$2
 1140 0a8c 09F82003 		jalr	$25
 1141 0a90 00000000 		nop
 1142              	
 1143 0a94 1800DC8F 		lw	$28,24($fp)
 111:apps/WikiUtil.c ****     int level = GetInt(found, WIKI_SCHEMA, WIKI_LEVEL);
 1144              		.loc 2 111 0
 1145 0a98 2800C48F 		lw	$4,40($fp)
 1146 0a9c 0000023C 		lui	$2,%hi($LC2)
 1147 0aa0 14004524 		addiu	$5,$2,%lo($LC2)
 1148 0aa4 21300000 		move	$6,$0
 1149              		.option	pic0
 1150 0aa8 3500000C 		jal	GetInt
 1151 0aac 00000000 		nop
 1152              	
 1153              		.option	pic2
 1154 0ab0 1800DC8F 		lw	$28,24($fp)
 1155 0ab4 2400C2AF 		sw	$2,36($fp)
 112:apps/WikiUtil.c ****     int parent = GetUInt(found, WIKI_SCHEMA, WIKI_PARENT);
 1156              		.loc 2 112 0
 1157 0ab8 2800C48F 		lw	$4,40($fp)
 1158 0abc 0000023C 		lui	$2,%hi($LC2)
 1159 0ac0 14004524 		addiu	$5,$2,%lo($LC2)
 1160 0ac4 01000624 		li	$6,1			# 0x1
 1161              		.option	pic0
 1162 0ac8 0E00000C 		jal	GetUInt
 1163 0acc 00000000 		nop
 1164              	
 1165              		.option	pic2
 1166 0ad0 1800DC8F 		lw	$28,24($fp)
 1167 0ad4 2000C2AF 		sw	$2,32($fp)
 113:apps/WikiUtil.c ****     if ((level == 0) && (parent != 0)) // redirect to self - filter
 1168              		.loc 2 113 0
 1169 0ad8 2400C28F 		lw	$2,36($fp)
 1170 0adc 00000000 		nop
 1171 0ae0 05004014 		bne	$2,$0,$L42
 1172 0ae4 00000000 		nop
 1173              	
 1174 0ae8 2000C28F 		lw	$2,32($fp)
 1175 0aec 00000000 		nop
 1176 0af0 B8FF4014 		bne	$2,$0,$L47
 1177 0af4 00000000 		nop
 1178              	
 1179              	$L42:
 115:apps/WikiUtil.c ****     if (level != 0)
 1180              		.loc 2 115 0
 1181 0af8 2400C28F 		lw	$2,36($fp)
 1182 0afc 00000000 		nop
 1183 0b00 04004010 		beq	$2,$0,$L44
 1184 0b04 00000000 		nop
 1185              	
 116:apps/WikiUtil.c ****       return 0;
 1186              		.loc 2 116 0
 1187 0b08 21100000 		move	$2,$0
 1188 0b0c 11000010 		b	$L40
 1189 0b10 00000000 		nop
 1190              	
 1191              	$L44:
 117:apps/WikiUtil.c ****     if (outBuf)
 1192              		.loc 2 117 0
 1193 0b14 3C00C28F 		lw	$2,60($fp)
 1194 0b18 00000000 		nop
 1195 0b1c 0C004010 		beq	$2,$0,$L45
 1196 0b20 00000000 		nop
 1197              	
 118:apps/WikiUtil.c ****       GetString(found, WIKI_SCHEMA, WIKI_TITLE, outBuf, outBufLen);
 1198              		.loc 2 118 0
 1199 0b24 4000C293 		lbu	$2,64($fp)
 1200 0b28 00000000 		nop
 1201 0b2c 1000A2AF 		sw	$2,16($sp)
 1202 0b30 2800C48F 		lw	$4,40($fp)
 1203 0b34 0000023C 		lui	$2,%hi($LC2)
 1204 0b38 14004524 		addiu	$5,$2,%lo($LC2)
 1205 0b3c 02000624 		li	$6,2			# 0x2
 1206 0b40 3C00C78F 		lw	$7,60($fp)
 1207              		.option	pic0
 1208 0b44 5E00000C 		jal	GetString
 1209 0b48 00000000 		nop
 1210              	
 1211              		.option	pic2
 1212 0b4c 1800DC8F 		lw	$28,24($fp)
 1213              	$L45:
 119:apps/WikiUtil.c ****     return 1;
 1214              		.loc 2 119 0
 1215 0b50 01000224 		li	$2,1			# 0x1
 1216              	$L40:
 1217              	$LBE5 = .
 120:apps/WikiUtil.c **** }
 1218              		.loc 2 121 0
 1219 0b54 21E8C003 		move	$sp,$fp
 1220 0b58 3400BF8F 		lw	$31,52($sp)
 1221 0b5c 3000BE8F 		lw	$fp,48($sp)
 1222 0b60 3800BD27 		addiu	$sp,$sp,56
 1223 0b64 0800E003 		j	$31
 1224 0b68 00000000 		nop
 1225              	
 1226              		.set	macro
 1227              		.set	reorder
 1228              		.end	SearchNext
 1229              	$LFE13:
 1231              		.align	2
 1232              		.globl	SearchRestart
 1233              	$LFB14 = .
 121:apps/WikiUtil.c **** 
 122:apps/WikiUtil.c **** void SearchRestart(ListGen *gen) {
 1234              		.loc 2 123 0
 1235              		.set	nomips16
 1236              		.ent	SearchRestart
 1238              	SearchRestart:
 1239              		.frame	$fp,80,$31		# vars= 40, regs= 3/0, args= 16, gp= 8
 1240              		.mask	0xc0010000,-4
 1241              		.fmask	0x00000000,0
 1242              		.set	noreorder
 1243              		.set	nomacro
 1244              		
 1245 0b6c B0FFBD27 		addiu	$sp,$sp,-80
 1246              	$LCFI48:
 1247 0b70 4C00BFAF 		sw	$31,76($sp)
 1248              	$LCFI49:
 1249 0b74 4800BEAF 		sw	$fp,72($sp)
 1250              	$LCFI50:
 1251 0b78 4400B0AF 		sw	$16,68($sp)
 1252              	$LCFI51:
 1253 0b7c 21F0A003 		move	$fp,$sp
 1254              	$LCFI52:
 1255 0b80 00001C3C 		lui	$28,%hi(__gnu_local_gp)
 1256 0b84 00009C27 		addiu	$28,$28,%lo(__gnu_local_gp)
 1257 0b88 1000BCAF 		.cprestore	16
 1258 0b8c 5000C4AF 		sw	$4,80($fp)
 123:apps/WikiUtil.c ****   SearchView *wa = (SearchView *) gen->userData;
 1259              		.loc 2 124 0
 1260 0b90 5000C28F 		lw	$2,80($fp)
 1261 0b94 00000000 		nop
 1262 0b98 0800428C 		lw	$2,8($2)
 1263 0b9c 00000000 		nop
 1264 0ba0 2000C2AF 		sw	$2,32($fp)
 124:apps/WikiUtil.c ****   char *b = MorseBoxGetBuffer(&wa->searchCmdr.mbox);
 1265              		.loc 2 125 0
 1266 0ba4 2000C28F 		lw	$2,32($fp)
 1267 0ba8 00000000 		nop
 1268 0bac 14004224 		addiu	$2,$2,20
 1269 0bb0 21204000 		move	$4,$2
 1270 0bb4 0000828F 		lw	$2,%call16(MorseBoxGetBuffer)($28)
 1271 0bb8 00000000 		nop
 1272 0bbc 21C84000 		move	$25,$2
 1273 0bc0 09F82003 		jalr	$25
 1274 0bc4 00000000 		nop
 1275              	
 1276 0bc8 1000DC8F 		lw	$28,16($fp)
 1277 0bcc 1C00C2AF 		sw	$2,28($fp)
 125:apps/WikiUtil.c ****   KeyT key = CalcUpperCRC(b);
 1278              		.loc 2 126 0
 1279 0bd0 1C00C48F 		lw	$4,28($fp)
 1280              		.option	pic0
 1281 0bd4 0000000C 		jal	CalcUpperCRC
 1282 0bd8 00000000 		nop
 1283              	
 1284              		.option	pic2
 1285 0bdc 1000DC8F 		lw	$28,16($fp)
 1286 0be0 1800C2AF 		sw	$2,24($fp)
 126:apps/WikiUtil.c ****   CursorDestroy(&wa->searchCur);
 1287              		.loc 2 127 0
 1288 0be4 2000C28F 		lw	$2,32($fp)
 1289 0be8 00000000 		nop
 1290 0bec D8004224 		addiu	$2,$2,216
 1291 0bf0 21204000 		move	$4,$2
 1292 0bf4 0000828F 		lw	$2,%call16(CursorDestroy)($28)
 1293 0bf8 00000000 		nop
 1294 0bfc 21C84000 		move	$25,$2
 1295 0c00 09F82003 		jalr	$25
 1296 0c04 00000000 		nop
 1297              	
 1298 0c08 1000DC8F 		lw	$28,16($fp)
 127:apps/WikiUtil.c ****   wa->searchCur = SelectKey(wa->pageTree, key);
 1299              		.loc 2 128 0
 1300 0c0c 2000D08F 		lw	$16,32($fp)
 1301 0c10 2800C327 		addiu	$3,$fp,40
 1302 0c14 2000C28F 		lw	$2,32($fp)
 1303 0c18 21206000 		move	$4,$3
 1304 0c1c 0000458C 		lw	$5,0($2)
 1305 0c20 0400468C 		lw	$6,4($2)
 1306 0c24 1800C78F 		lw	$7,24($fp)
 1307 0c28 0000828F 		lw	$2,%call16(SelectKey)($28)
 1308 0c2c 00000000 		nop
 1309 0c30 21C84000 		move	$25,$2
 1310 0c34 09F82003 		jalr	$25
 1311 0c38 00000000 		nop
 1312              	
 1313 0c3c 1000DC8F 		lw	$28,16($fp)
 1314 0c40 2800C78F 		lw	$7,40($fp)
 1315 0c44 2C00C68F 		lw	$6,44($fp)
 1316 0c48 3000C58F 		lw	$5,48($fp)
 1317 0c4c 3400C48F 		lw	$4,52($fp)
 1318 0c50 3800C38F 		lw	$3,56($fp)
 1319 0c54 3C00C28F 		lw	$2,60($fp)
 1320 0c58 D80007AE 		sw	$7,216($16)
 1321 0c5c DC0006AE 		sw	$6,220($16)
 1322 0c60 E00005AE 		sw	$5,224($16)
 1323 0c64 E40004AE 		sw	$4,228($16)
 1324 0c68 E80003AE 		sw	$3,232($16)
 1325 0c6c EC0002AE 		sw	$2,236($16)
 128:apps/WikiUtil.c **** }
 1326              		.loc 2 129 0
 1327 0c70 21E8C003 		move	$sp,$fp
 1328 0c74 4C00BF8F 		lw	$31,76($sp)
 1329 0c78 4800BE8F 		lw	$fp,72($sp)
 1330 0c7c 4400B08F 		lw	$16,68($sp)
 1331 0c80 5000BD27 		addiu	$sp,$sp,80
 1332 0c84 0800E003 		j	$31
 1333 0c88 00000000 		nop
 1334              	
 1335              		.set	macro
 1336              		.set	reorder
 1337              		.end	SearchRestart
 1338              	$LFE14:
 1340              		.rdata
 1341 0019 000000   		.align	2
 1342              	$LC3:
 1343 001c 21437572 		.ascii	"!CursorIsInvalid(&wa->prefixCur)\000"
 1343      736F7249 
 1343      73496E76 
 1343      616C6964 
 1343      28267761 
 1344 003d 000000   		.align	2
 1345              	$LC4:
 1346 0040 257800   		.ascii	"%x\000"
 1347              		.text
 1348              		.align	2
 1349              		.globl	PreNext
 1350              	$LFB15 = .
 129:apps/WikiUtil.c **** 
 130:apps/WikiUtil.c **** char PreNext(ListGen *gen, char *outBuf, unsigned char outBufLen) {
 1351              		.loc 2 131 0
 1352              		.set	nomips16
 1353              		.ent	PreNext
 1355              	PreNext:
 1356              		.frame	$fp,80,$31		# vars= 40, regs= 2/0, args= 24, gp= 8
 1357              		.mask	0xc0000000,-4
 1358              		.fmask	0x00000000,0
 1359              		.set	noreorder
 1360              		.set	nomacro
 1361              		
 1362 0c8c B0FFBD27 		addiu	$sp,$sp,-80
 1363              	$LCFI53:
 1364 0c90 4C00BFAF 		sw	$31,76($sp)
 1365              	$LCFI54:
 1366 0c94 4800BEAF 		sw	$fp,72($sp)
 1367              	$LCFI55:
 1368 0c98 21F0A003 		move	$fp,$sp
 1369              	$LCFI56:
 1370 0c9c 00001C3C 		lui	$28,%hi(__gnu_local_gp)
 1371 0ca0 00009C27 		addiu	$28,$28,%lo(__gnu_local_gp)
 1372 0ca4 1800BCAF 		.cprestore	24
 1373 0ca8 5000C4AF 		sw	$4,80($fp)
 1374 0cac 5400C5AF 		sw	$5,84($fp)
 1375 0cb0 2110C000 		move	$2,$6
 1376 0cb4 5800C2A3 		sb	$2,88($fp)
 1377              	$LBB6 = .
 131:apps/WikiUtil.c ****   while (1) {
 132:apps/WikiUtil.c ****     SearchView *wa = (SearchView *) gen->userData;
 1378              		.loc 2 133 0
 1379 0cb8 5000C28F 		lw	$2,80($fp)
 1380 0cbc 00000000 		nop
 1381 0cc0 0800428C 		lw	$2,8($2)
 1382 0cc4 00000000 		nop
 1383 0cc8 2800C2AF 		sw	$2,40($fp)
 133:apps/WikiUtil.c ****     assert(!CursorIsInvalid(&wa->prefixCur));
 1384              		.loc 2 134 0
 1385 0ccc 2800C28F 		lw	$2,40($fp)
 1386 0cd0 00000000 		nop
 1387 0cd4 F0004224 		addiu	$2,$2,240
 1388 0cd8 21204000 		move	$4,$2
 1389              		.option	pic0
 1390 0cdc 0000000C 		jal	CursorIsInvalid
 1391 0ce0 00000000 		nop
 1392              	
 1393              		.option	pic2
 1394 0ce4 1800DC8F 		lw	$28,24($fp)
 1395 0ce8 0D004010 		beq	$2,$0,$L51
 1396 0cec 00000000 		nop
 1397              	
 1398 0cf0 0000023C 		lui	$2,%hi($LC3)
 1399 0cf4 1C004424 		addiu	$4,$2,%lo($LC3)
 1400 0cf8 0000023C 		lui	$2,%hi($LC1)
 1401 0cfc 04004524 		addiu	$5,$2,%lo($LC1)
 1402 0d00 86000624 		li	$6,134			# 0x86
 1403 0d04 0000023C 		lui	$2,%hi(__PRETTY_FUNCTION__.2685)
 1404 0d08 BC004724 		addiu	$7,$2,%lo(__PRETTY_FUNCTION__.2685)
 1405 0d0c 0000828F 		lw	$2,%call16(__assert_fail)($28)
 1406 0d10 00000000 		nop
 1407 0d14 21C84000 		move	$25,$2
 1408 0d18 09F82003 		jalr	$25
 1409 0d1c 00000000 		nop
 1410              	
 1411              	$L51:
 134:apps/WikiUtil.c ****     BAT found = CursorNext(&wa->prefixCur);
 1412              		.loc 2 135 0
 1413 0d20 2800C28F 		lw	$2,40($fp)
 1414 0d24 00000000 		nop
 1415 0d28 F0004224 		addiu	$2,$2,240
 1416 0d2c 21204000 		move	$4,$2
 1417 0d30 0000828F 		lw	$2,%call16(CursorNext)($28)
 1418 0d34 00000000 		nop
 1419 0d38 21C84000 		move	$25,$2
 1420 0d3c 09F82003 		jalr	$25
 1421 0d40 00000000 		nop
 1422              	
 1423 0d44 1800DC8F 		lw	$28,24($fp)
 1424 0d48 2400C2AF 		sw	$2,36($fp)
 135:apps/WikiUtil.c ****     if (found == BAInvalid)
 1425              		.loc 2 136 0
 1426 0d4c 2400C38F 		lw	$3,36($fp)
 1427 0d50 FFFF0224 		li	$2,-1			# 0xffffffffffffffff
 1428 0d54 04006214 		bne	$3,$2,$L52
 1429 0d58 00000000 		nop
 1430              	
 136:apps/WikiUtil.c ****       return 0;
 1431              		.loc 2 137 0
 1432 0d5c 21100000 		move	$2,$0
 1433 0d60 4A000010 		b	$L53
 1434 0d64 00000000 		nop
 1435              	
 1436              	$L52:
 137:apps/WikiUtil.c ****     if (!outBuf)
 1437              		.loc 2 138 0
 1438 0d68 5400C28F 		lw	$2,84($fp)
 1439 0d6c 00000000 		nop
 1440 0d70 04004014 		bne	$2,$0,$L54
 1441 0d74 00000000 		nop
 1442              	
 138:apps/WikiUtil.c ****       return 1;
 1443              		.loc 2 139 0
 1444 0d78 01000224 		li	$2,1			# 0x1
 1445 0d7c 43000010 		b	$L53
 1446 0d80 00000000 		nop
 1447              	
 1448              	$L54:
 139:apps/WikiUtil.c ****     Cursor cur = SelectKey(wa->pageTree, found);
 1449              		.loc 2 140 0
 1450 0d84 2C00C327 		addiu	$3,$fp,44
 1451 0d88 2800C28F 		lw	$2,40($fp)
 1452 0d8c 21206000 		move	$4,$3
 1453 0d90 0000458C 		lw	$5,0($2)
 1454 0d94 0400468C 		lw	$6,4($2)
 1455 0d98 2400C78F 		lw	$7,36($fp)
 1456 0d9c 0000828F 		lw	$2,%call16(SelectKey)($28)
 1457 0da0 00000000 		nop
 1458 0da4 21C84000 		move	$25,$2
 1459 0da8 09F82003 		jalr	$25
 1460 0dac 00000000 		nop
 1461              	
 1462 0db0 1800DC8F 		lw	$28,24($fp)
 140:apps/WikiUtil.c ****     BAT sec = CursorNext(&cur);
 1463              		.loc 2 141 0
 1464 0db4 2C00C227 		addiu	$2,$fp,44
 1465 0db8 21204000 		move	$4,$2
 1466 0dbc 0000828F 		lw	$2,%call16(CursorNext)($28)
 1467 0dc0 00000000 		nop
 1468 0dc4 21C84000 		move	$25,$2
 1469 0dc8 09F82003 		jalr	$25
 1470 0dcc 00000000 		nop
 1471              	
 1472 0dd0 1800DC8F 		lw	$28,24($fp)
 1473 0dd4 2000C2AF 		sw	$2,32($fp)
 141:apps/WikiUtil.c ****     if (sec == BAInvalid) {
 1474              		.loc 2 142 0
 1475 0dd8 2000C38F 		lw	$3,32($fp)
 1476 0ddc FFFF0224 		li	$2,-1			# 0xffffffffffffffff
 1477 0de0 11006214 		bne	$3,$2,$L55
 1478 0de4 00000000 		nop
 1479              	
 142:apps/WikiUtil.c ****       snprintf(outBuf, outBufLen, "%x", (unsigned int) found);
 1480              		.loc 2 143 0
 1481 0de8 5800C393 		lbu	$3,88($fp)
 1482 0dec 0000023C 		lui	$2,%hi($LC4)
 1483 0df0 40004224 		addiu	$2,$2,%lo($LC4)
 1484 0df4 5400C48F 		lw	$4,84($fp)
 1485 0df8 21286000 		move	$5,$3
 1486 0dfc 21304000 		move	$6,$2
 1487 0e00 2400C78F 		lw	$7,36($fp)
 1488 0e04 0000828F 		lw	$2,%call16(snprintf)($28)
 1489 0e08 00000000 		nop
 1490 0e0c 21C84000 		move	$25,$2
 1491 0e10 09F82003 		jalr	$25
 1492 0e14 00000000 		nop
 1493              	
 1494 0e18 1800DC8F 		lw	$28,24($fp)
 143:apps/WikiUtil.c ****       return 1;
 1495              		.loc 2 144 0
 1496 0e1c 01000224 		li	$2,1			# 0x1
 1497 0e20 1A000010 		b	$L53
 1498 0e24 00000000 		nop
 1499              	
 1500              	$L55:
 144:apps/WikiUtil.c ****     }
 145:apps/WikiUtil.c ****     FileOpenRO(((DbContext*)wa->pageTree.userData)->blobFname);
 1501              		.loc 2 146 0
 1502 0e28 2800C28F 		lw	$2,40($fp)
 1503 0e2c 00000000 		nop
 1504 0e30 0400428C 		lw	$2,4($2)
 1505 0e34 00000000 		nop
 1506 0e38 0800428C 		lw	$2,8($2)
 1507 0e3c 00000000 		nop
 1508 0e40 21204000 		move	$4,$2
 1509 0e44 0000828F 		lw	$2,%call16(FileOpenRO)($28)
 1510 0e48 00000000 		nop
 1511 0e4c 21C84000 		move	$25,$2
 1512 0e50 09F82003 		jalr	$25
 1513 0e54 00000000 		nop
 1514              	
 1515 0e58 1800DC8F 		lw	$28,24($fp)
 146:apps/WikiUtil.c ****     //ERRORassert();
 147:apps/WikiUtil.c ****     GetString(sec, WIKI_SCHEMA, WIKI_TITLE, outBuf, outBufLen);
 1516              		.loc 2 148 0
 1517 0e5c 5800C293 		lbu	$2,88($fp)
 1518 0e60 00000000 		nop
 1519 0e64 1000A2AF 		sw	$2,16($sp)
 1520 0e68 2000C48F 		lw	$4,32($fp)
 1521 0e6c 0000023C 		lui	$2,%hi($LC2)
 1522 0e70 14004524 		addiu	$5,$2,%lo($LC2)
 1523 0e74 02000624 		li	$6,2			# 0x2
 1524 0e78 5400C78F 		lw	$7,84($fp)
 1525              		.option	pic0
 1526 0e7c 5E00000C 		jal	GetString
 1527 0e80 00000000 		nop
 1528              	
 1529              		.option	pic2
 1530 0e84 1800DC8F 		lw	$28,24($fp)
 148:apps/WikiUtil.c ****     return 1;
 1531              		.loc 2 149 0
 1532 0e88 01000224 		li	$2,1			# 0x1
 1533              	$L53:
 1534              	$LBE6 = .
 149:apps/WikiUtil.c ****   }
 150:apps/WikiUtil.c **** }
 1535              		.loc 2 151 0
 1536 0e8c 21E8C003 		move	$sp,$fp
 1537 0e90 4C00BF8F 		lw	$31,76($sp)
 1538 0e94 4800BE8F 		lw	$fp,72($sp)
 1539 0e98 5000BD27 		addiu	$sp,$sp,80
 1540 0e9c 0800E003 		j	$31
 1541 0ea0 00000000 		nop
 1542              	
 1543              		.set	macro
 1544              		.set	reorder
 1545              		.end	PreNext
 1546              	$LFE15:
 1548              		.align	2
 1549              		.globl	PreRestart
 1550              	$LFB16 = .
 151:apps/WikiUtil.c **** 
 152:apps/WikiUtil.c **** void PreRestart(ListGen *gen) {
 1551              		.loc 2 153 0
 1552              		.set	nomips16
 1553              		.ent	PreRestart
 1555              	PreRestart:
 1556              		.frame	$fp,80,$31		# vars= 40, regs= 3/0, args= 16, gp= 8
 1557              		.mask	0xc0010000,-4
 1558              		.fmask	0x00000000,0
 1559              		.set	noreorder
 1560              		.set	nomacro
 1561              		
 1562 0ea4 B0FFBD27 		addiu	$sp,$sp,-80
 1563              	$LCFI57:
 1564 0ea8 4C00BFAF 		sw	$31,76($sp)
 1565              	$LCFI58:
 1566 0eac 4800BEAF 		sw	$fp,72($sp)
 1567              	$LCFI59:
 1568 0eb0 4400B0AF 		sw	$16,68($sp)
 1569              	$LCFI60:
 1570 0eb4 21F0A003 		move	$fp,$sp
 1571              	$LCFI61:
 1572 0eb8 00001C3C 		lui	$28,%hi(__gnu_local_gp)
 1573 0ebc 00009C27 		addiu	$28,$28,%lo(__gnu_local_gp)
 1574 0ec0 1000BCAF 		.cprestore	16
 1575 0ec4 5000C4AF 		sw	$4,80($fp)
 153:apps/WikiUtil.c ****   SearchView *wa = (SearchView *) gen->userData;
 1576              		.loc 2 154 0
 1577 0ec8 5000C28F 		lw	$2,80($fp)
 1578 0ecc 00000000 		nop
 1579 0ed0 0800428C 		lw	$2,8($2)
 1580 0ed4 00000000 		nop
 1581 0ed8 2000C2AF 		sw	$2,32($fp)
 154:apps/WikiUtil.c ****   char *b = MorseBoxGetBuffer(&wa->searchCmdr.mbox);
 1582              		.loc 2 155 0
 1583 0edc 2000C28F 		lw	$2,32($fp)
 1584 0ee0 00000000 		nop
 1585 0ee4 14004224 		addiu	$2,$2,20
 1586 0ee8 21204000 		move	$4,$2
 1587 0eec 0000828F 		lw	$2,%call16(MorseBoxGetBuffer)($28)
 1588 0ef0 00000000 		nop
 1589 0ef4 21C84000 		move	$25,$2
 1590 0ef8 09F82003 		jalr	$25
 1591 0efc 00000000 		nop
 1592              	
 1593 0f00 1000DC8F 		lw	$28,16($fp)
 1594 0f04 1C00C2AF 		sw	$2,28($fp)
 155:apps/WikiUtil.c ****   KeyT key = CalcUpperCRC(b);
 1595              		.loc 2 156 0
 1596 0f08 1C00C48F 		lw	$4,28($fp)
 1597              		.option	pic0
 1598 0f0c 0000000C 		jal	CalcUpperCRC
 1599 0f10 00000000 		nop
 1600              	
 1601              		.option	pic2
 1602 0f14 1000DC8F 		lw	$28,16($fp)
 1603 0f18 1800C2AF 		sw	$2,24($fp)
 156:apps/WikiUtil.c ****   CursorDestroy(&wa->prefixCur);
 1604              		.loc 2 157 0
 1605 0f1c 2000C28F 		lw	$2,32($fp)
 1606 0f20 00000000 		nop
 1607 0f24 F0004224 		addiu	$2,$2,240
 1608 0f28 21204000 		move	$4,$2
 1609 0f2c 0000828F 		lw	$2,%call16(CursorDestroy)($28)
 1610 0f30 00000000 		nop
 1611 0f34 21C84000 		move	$25,$2
 1612 0f38 09F82003 		jalr	$25
 1613 0f3c 00000000 		nop
 1614              	
 1615 0f40 1000DC8F 		lw	$28,16($fp)
 157:apps/WikiUtil.c ****   wa->prefixCur = SelectKey(wa->prefixTree, key);
 1616              		.loc 2 158 0
 1617 0f44 2000D08F 		lw	$16,32($fp)
 1618 0f48 2800C327 		addiu	$3,$fp,40
 1619 0f4c 2000C28F 		lw	$2,32($fp)
 1620 0f50 21206000 		move	$4,$3
 1621 0f54 0800458C 		lw	$5,8($2)
 1622 0f58 0C00468C 		lw	$6,12($2)
 1623 0f5c 1800C78F 		lw	$7,24($fp)
 1624 0f60 0000828F 		lw	$2,%call16(SelectKey)($28)
 1625 0f64 00000000 		nop
 1626 0f68 21C84000 		move	$25,$2
 1627 0f6c 09F82003 		jalr	$25
 1628 0f70 00000000 		nop
 1629              	
 1630 0f74 1000DC8F 		lw	$28,16($fp)
 1631 0f78 2800C78F 		lw	$7,40($fp)
 1632 0f7c 2C00C68F 		lw	$6,44($fp)
 1633 0f80 3000C58F 		lw	$5,48($fp)
 1634 0f84 3400C48F 		lw	$4,52($fp)
 1635 0f88 3800C38F 		lw	$3,56($fp)
 1636 0f8c 3C00C28F 		lw	$2,60($fp)
 1637 0f90 F00007AE 		sw	$7,240($16)
 1638 0f94 F40006AE 		sw	$6,244($16)
 1639 0f98 F80005AE 		sw	$5,248($16)
 1640 0f9c FC0004AE 		sw	$4,252($16)
 1641 0fa0 000103AE 		sw	$3,256($16)
 1642 0fa4 040102AE 		sw	$2,260($16)
 158:apps/WikiUtil.c **** }
 1643              		.loc 2 159 0
 1644 0fa8 21E8C003 		move	$sp,$fp
 1645 0fac 4C00BF8F 		lw	$31,76($sp)
 1646 0fb0 4800BE8F 		lw	$fp,72($sp)
 1647 0fb4 4400B08F 		lw	$16,68($sp)
 1648 0fb8 5000BD27 		addiu	$sp,$sp,80
 1649 0fbc 0800E003 		j	$31
 1650 0fc0 00000000 		nop
 1651              	
 1652              		.set	macro
 1653              		.set	reorder
 1654              		.end	PreRestart
 1655              	$LFE16:
 1657              		.align	2
 1658              		.globl	SearchViewInit
 1659              	$LFB17 = .
 159:apps/WikiUtil.c **** 
 160:apps/WikiUtil.c **** void SearchViewInit(SearchView *sv, DbContext *pageContext, DbContext *prefixContext, unsigned char
 1660              		.loc 2 161 0
 1661              		.set	nomips16
 1662              		.ent	SearchViewInit
 1664              	SearchViewInit:
 1665              		.frame	$fp,152,$31		# vars= 80, regs= 2/0, args= 56, gp= 8
 1666              		.mask	0xc0000000,-4
 1667              		.fmask	0x00000000,0
 1668              		.set	noreorder
 1669              		.set	nomacro
 1670              		
 1671 0fc4 68FFBD27 		addiu	$sp,$sp,-152
 1672              	$LCFI62:
 1673 0fc8 9400BFAF 		sw	$31,148($sp)
 1674              	$LCFI63:
 1675 0fcc 9000BEAF 		sw	$fp,144($sp)
 1676              	$LCFI64:
 1677 0fd0 21F0A003 		move	$fp,$sp
 1678              	$LCFI65:
 1679 0fd4 00001C3C 		lui	$28,%hi(__gnu_local_gp)
 1680 0fd8 00009C27 		addiu	$28,$28,%lo(__gnu_local_gp)
 1681 0fdc 3800BCAF 		.cprestore	56
 1682 0fe0 9800C4AF 		sw	$4,152($fp)
 1683 0fe4 9C00C5AF 		sw	$5,156($fp)
 1684 0fe8 A000C6AF 		sw	$6,160($fp)
 1685 0fec 2118E000 		move	$3,$7
 1686 0ff0 A800C28F 		lw	$2,168($fp)
 1687 0ff4 A400C3A3 		sb	$3,164($fp)
 1688 0ff8 8800C2A3 		sb	$2,136($fp)
 161:apps/WikiUtil.c ****   TreeInit(&sv->pageTree, pageContext);
 1689              		.loc 2 162 0
 1690 0ffc 9800C28F 		lw	$2,152($fp)
 1691 1000 00000000 		nop
 1692 1004 21204000 		move	$4,$2
 1693 1008 9C00C58F 		lw	$5,156($fp)
 1694 100c 0000828F 		lw	$2,%call16(TreeInit)($28)
 1695 1010 00000000 		nop
 1696 1014 21C84000 		move	$25,$2
 1697 1018 09F82003 		jalr	$25
 1698 101c 00000000 		nop
 1699              	
 1700 1020 3800DC8F 		lw	$28,56($fp)
 162:apps/WikiUtil.c ****   TreeInit(&sv->prefixTree, prefixContext);
 1701              		.loc 2 163 0
 1702 1024 9800C28F 		lw	$2,152($fp)
 1703 1028 00000000 		nop
 1704 102c 08004224 		addiu	$2,$2,8
 1705 1030 21204000 		move	$4,$2
 1706 1034 A000C58F 		lw	$5,160($fp)
 1707 1038 0000828F 		lw	$2,%call16(TreeInit)($28)
 1708 103c 00000000 		nop
 1709 1040 21C84000 		move	$25,$2
 1710 1044 09F82003 		jalr	$25
 1711 1048 00000000 		nop
 1712              	
 1713 104c 3800DC8F 		lw	$28,56($fp)
 163:apps/WikiUtil.c **** 
 164:apps/WikiUtil.c ****   ListGen searchGen = ListGenCreate(SearchNext, SearchRestart, (void*) sv);
 1714              		.loc 2 165 0
 1715 1050 9800C28F 		lw	$2,152($fp)
 1716 1054 4000C327 		addiu	$3,$fp,64
 1717 1058 21206000 		move	$4,$3
 1718 105c 0000033C 		lui	$3,%hi(SearchNext)
 1719 1060 00006524 		addiu	$5,$3,%lo(SearchNext)
 1720 1064 0000033C 		lui	$3,%hi(SearchRestart)
 1721 1068 00006624 		addiu	$6,$3,%lo(SearchRestart)
 1722 106c 21384000 		move	$7,$2
 1723 1070 0000828F 		lw	$2,%call16(ListGenCreate)($28)
 1724 1074 00000000 		nop
 1725 1078 21C84000 		move	$25,$2
 1726 107c 09F82003 		jalr	$25
 1727 1080 00000000 		nop
 1728              	
 1729 1084 3800DC8F 		lw	$28,56($fp)
 165:apps/WikiUtil.c ****   ListGen prefixGen = ListGenCreate(PreNext, PreRestart, (void*) sv);
 1730              		.loc 2 166 0
 1731 1088 9800C28F 		lw	$2,152($fp)
 1732 108c 5800C327 		addiu	$3,$fp,88
 1733 1090 21206000 		move	$4,$3
 1734 1094 0000033C 		lui	$3,%hi(PreNext)
 1735 1098 00006524 		addiu	$5,$3,%lo(PreNext)
 1736 109c 0000033C 		lui	$3,%hi(PreRestart)
 1737 10a0 00006624 		addiu	$6,$3,%lo(PreRestart)
 1738 10a4 21384000 		move	$7,$2
 1739 10a8 0000828F 		lw	$2,%call16(ListGenCreate)($28)
 1740 10ac 00000000 		nop
 1741 10b0 21C84000 		move	$25,$2
 1742 10b4 09F82003 		jalr	$25
 1743 10b8 00000000 		nop
 1744              	
 1745 10bc 3800DC8F 		lw	$28,56($fp)
 166:apps/WikiUtil.c ****   ListGen concatGen = ConcatGenCreate(&sv->concatGen, searchGen, prefixGen);
 1746              		.loc 2 167 0
 1747 10c0 9800C28F 		lw	$2,152($fp)
 1748 10c4 00000000 		nop
 1749 10c8 A8004224 		addiu	$2,$2,168
 1750 10cc 7000C327 		addiu	$3,$fp,112
 1751 10d0 5800C98F 		lw	$9,88($fp)
 1752 10d4 5C00C88F 		lw	$8,92($fp)
 1753 10d8 6000C78F 		lw	$7,96($fp)
 1754 10dc 6400C68F 		lw	$6,100($fp)
 1755 10e0 6800C58F 		lw	$5,104($fp)
 1756 10e4 6C00C48F 		lw	$4,108($fp)
 1757 10e8 2000A9AF 		sw	$9,32($sp)
 1758 10ec 2400A8AF 		sw	$8,36($sp)
 1759 10f0 2800A7AF 		sw	$7,40($sp)
 1760 10f4 2C00A6AF 		sw	$6,44($sp)
 1761 10f8 3000A5AF 		sw	$5,48($sp)
 1762 10fc 3400A4AF 		sw	$4,52($sp)
 1763 1100 4800C78F 		lw	$7,72($fp)
 1764 1104 4C00C68F 		lw	$6,76($fp)
 1765 1108 5000C58F 		lw	$5,80($fp)
 1766 110c 5400C48F 		lw	$4,84($fp)
 1767 1110 1000A7AF 		sw	$7,16($sp)
 1768 1114 1400A6AF 		sw	$6,20($sp)
 1769 1118 1800A5AF 		sw	$5,24($sp)
 1770 111c 1C00A4AF 		sw	$4,28($sp)
 1771 1120 4000C68F 		lw	$6,64($fp)
 1772 1124 4400C78F 		lw	$7,68($fp)
 1773 1128 21206000 		move	$4,$3
 1774 112c 21284000 		move	$5,$2
 1775 1130 0000828F 		lw	$2,%call16(ConcatGenCreate)($28)
 1776 1134 00000000 		nop
 1777 1138 21C84000 		move	$25,$2
 1778 113c 09F82003 		jalr	$25
 1779 1140 00000000 		nop
 1780              	
 1781 1144 3800DC8F 		lw	$28,56($fp)
 167:apps/WikiUtil.c ****   ListCmdrInit(&sv->searchCmdr, concatGen, startRow, nRows, 0, nRows/2);
 1782              		.loc 2 168 0
 1783 1148 9800C28F 		lw	$2,152($fp)
 1784 114c 00000000 		nop
 1785 1150 10004224 		addiu	$2,$2,16
 1786 1154 A400C593 		lbu	$5,164($fp)
 1787 1158 8800C493 		lbu	$4,136($fp)
 1788 115c 8800C393 		lbu	$3,136($fp)
 1789 1160 00000000 		nop
 1790 1164 42180300 		srl	$3,$3,1
 1791 1168 FF006330 		andi	$3,$3,0x00ff
 1792 116c 1C00A5AF 		sw	$5,28($sp)
 1793 1170 2000A4AF 		sw	$4,32($sp)
 1794 1174 2400A0AF 		sw	$0,36($sp)
 1795 1178 2800A3AF 		sw	$3,40($sp)
 1796 117c 7C00C58F 		lw	$5,124($fp)
 1797 1180 8000C48F 		lw	$4,128($fp)
 1798 1184 8400C38F 		lw	$3,132($fp)
 1799 1188 1000A5AF 		sw	$5,16($sp)
 1800 118c 1400A4AF 		sw	$4,20($sp)
 1801 1190 1800A3AF 		sw	$3,24($sp)
 1802 1194 7000C58F 		lw	$5,112($fp)
 1803 1198 7400C68F 		lw	$6,116($fp)
 1804 119c 7800C78F 		lw	$7,120($fp)
 1805 11a0 21204000 		move	$4,$2
 1806 11a4 0000828F 		lw	$2,%call16(ListCmdrInit)($28)
 1807 11a8 00000000 		nop
 1808 11ac 21C84000 		move	$25,$2
 1809 11b0 09F82003 		jalr	$25
 1810 11b4 00000000 		nop
 1811              	
 1812 11b8 3800DC8F 		lw	$28,56($fp)
 168:apps/WikiUtil.c **** }
 1813              		.loc 2 169 0
 1814 11bc 21E8C003 		move	$sp,$fp
 1815 11c0 9400BF8F 		lw	$31,148($sp)
 1816 11c4 9000BE8F 		lw	$fp,144($sp)
 1817 11c8 9800BD27 		addiu	$sp,$sp,152
 1818 11cc 0800E003 		j	$31
 1819 11d0 00000000 		nop
 1820              	
 1821              		.set	macro
 1822              		.set	reorder
 1823              		.end	SearchViewInit
 1824              	$LFE17:
 1826              		.rdata
 1827 0043 00       		.align	2
 1828              	$LC5:
 1829 0044 6F757442 		.ascii	"outBufLen <= 37\000"
 1829      75664C65 
 1829      6E203C3D 
 1829      20333700 
 1830              		.align	2
 1831              	$LC6:
 1832 0054 53656374 		.ascii	"SectionNext: Failure to read text\000"
 1832      696F6E4E 
 1832      6578743A 
 1832      20466169 
 1832      6C757265 
 1833              		.text
 1834              		.align	2
 1835              		.globl	SectionNext
 1836              	$LFB18 = .
 169:apps/WikiUtil.c **** 
 170:apps/WikiUtil.c **** char SectionNext(ListGen *gen, char *outBuf, unsigned char outBufLen) {
 1837              		.loc 2 171 0
 1838              		.set	nomips16
 1839              		.ent	SectionNext
 1841              	SectionNext:
 1842              		.frame	$fp,88,$31		# vars= 56, regs= 2/0, args= 16, gp= 8
 1843              		.mask	0xc0000000,-4
 1844              		.fmask	0x00000000,0
 1845              		.set	noreorder
 1846              		.set	nomacro
 1847              		
 1848 11d4 A8FFBD27 		addiu	$sp,$sp,-88
 1849              	$LCFI66:
 1850 11d8 5400BFAF 		sw	$31,84($sp)
 1851              	$LCFI67:
 1852 11dc 5000BEAF 		sw	$fp,80($sp)
 1853              	$LCFI68:
 1854 11e0 21F0A003 		move	$fp,$sp
 1855              	$LCFI69:
 1856 11e4 00001C3C 		lui	$28,%hi(__gnu_local_gp)
 1857 11e8 00009C27 		addiu	$28,$28,%lo(__gnu_local_gp)
 1858 11ec 1000BCAF 		.cprestore	16
 1859 11f0 5800C4AF 		sw	$4,88($fp)
 1860 11f4 5C00C5AF 		sw	$5,92($fp)
 1861 11f8 2110C000 		move	$2,$6
 1862 11fc 6000C2A3 		sb	$2,96($fp)
 171:apps/WikiUtil.c ****   SectionView *wa = (SectionView *) gen->userData;
 1863              		.loc 2 172 0
 1864 1200 5800C28F 		lw	$2,88($fp)
 1865 1204 00000000 		nop
 1866 1208 0800428C 		lw	$2,8($2)
 1867 120c 00000000 		nop
 1868 1210 2400C2AF 		sw	$2,36($fp)
 172:apps/WikiUtil.c ****   char buf[LISTGEN_STRING_MAX];
 173:apps/WikiUtil.c ****   if (!wa->textLength)
 1869              		.loc 2 174 0
 1870 1214 2400C28F 		lw	$2,36($fp)
 1871 1218 00000000 		nop
 1872 121c 5800428C 		lw	$2,88($2)
 1873 1220 00000000 		nop
 1874 1224 04004014 		bne	$2,$0,$L62
 1875 1228 00000000 		nop
 1876              	
 174:apps/WikiUtil.c ****     return 0;
 1877              		.loc 2 175 0
 1878 122c 21100000 		move	$2,$0
 1879 1230 E9000010 		b	$L63
 1880 1234 00000000 		nop
 1881              	
 1882              	$L62:
 175:apps/WikiUtil.c ****   if (wa->textOffset >= wa->textStartOffset + wa->textLength)
 1883              		.loc 2 176 0
 1884 1238 2400C28F 		lw	$2,36($fp)
 1885 123c 00000000 		nop
 1886 1240 5400438C 		lw	$3,84($2)
 1887 1244 2400C28F 		lw	$2,36($fp)
 1888 1248 00000000 		nop
 1889 124c 5000448C 		lw	$4,80($2)
 1890 1250 2400C28F 		lw	$2,36($fp)
 1891 1254 00000000 		nop
 1892 1258 5800428C 		lw	$2,88($2)
 1893 125c 00000000 		nop
 1894 1260 21108200 		addu	$2,$4,$2
 1895 1264 2B106200 		sltu	$2,$3,$2
 1896 1268 04004014 		bne	$2,$0,$L64
 1897 126c 00000000 		nop
 1898              	
 176:apps/WikiUtil.c ****     return 0;
 1899              		.loc 2 177 0
 1900 1270 21100000 		move	$2,$0
 1901 1274 D8000010 		b	$L63
 1902 1278 00000000 		nop
 1903              	
 1904              	$L64:
 177:apps/WikiUtil.c ****   FileOpenRO(wa->pageContext->blobFname);
 1905              		.loc 2 178 0
 1906 127c 2400C28F 		lw	$2,36($fp)
 1907 1280 00000000 		nop
 1908 1284 0000428C 		lw	$2,0($2)
 1909 1288 00000000 		nop
 1910 128c 0800428C 		lw	$2,8($2)
 1911 1290 00000000 		nop
 1912 1294 21204000 		move	$4,$2
 1913 1298 0000828F 		lw	$2,%call16(FileOpenRO)($28)
 1914 129c 00000000 		nop
 1915 12a0 21C84000 		move	$25,$2
 1916 12a4 09F82003 		jalr	$25
 1917 12a8 00000000 		nop
 1918              	
 1919 12ac 1000DC8F 		lw	$28,16($fp)
 178:apps/WikiUtil.c ****   FileSeek(wa->textOffset);
 1920              		.loc 2 179 0
 1921 12b0 2400C28F 		lw	$2,36($fp)
 1922 12b4 00000000 		nop
 1923 12b8 5400428C 		lw	$2,84($2)
 1924 12bc 00000000 		nop
 1925 12c0 21204000 		move	$4,$2
 1926 12c4 0000828F 		lw	$2,%call16(FileSeek)($28)
 1927 12c8 00000000 		nop
 1928 12cc 21C84000 		move	$25,$2
 1929 12d0 09F82003 		jalr	$25
 1930 12d4 00000000 		nop
 1931              	
 1932 12d8 1000DC8F 		lw	$28,16($fp)
 179:apps/WikiUtil.c ****   //ERRORassert();
 180:apps/WikiUtil.c ****   uint32_t len = wa->textLength - (wa->textOffset - wa->textStartOffset);
 1933              		.loc 2 181 0
 1934 12dc 2400C28F 		lw	$2,36($fp)
 1935 12e0 00000000 		nop
 1936 12e4 5800438C 		lw	$3,88($2)
 1937 12e8 2400C28F 		lw	$2,36($fp)
 1938 12ec 00000000 		nop
 1939 12f0 5000448C 		lw	$4,80($2)
 1940 12f4 2400C28F 		lw	$2,36($fp)
 1941 12f8 00000000 		nop
 1942 12fc 5400428C 		lw	$2,84($2)
 1943 1300 00000000 		nop
 1944 1304 23108200 		subu	$2,$4,$2
 1945 1308 21106200 		addu	$2,$3,$2
 1946 130c 2000C2AF 		sw	$2,32($fp)
 181:apps/WikiUtil.c ****   assert(outBufLen <= LISTGEN_STRING_MAX);
 1947              		.loc 2 182 0
 1948 1310 6000C293 		lbu	$2,96($fp)
 1949 1314 00000000 		nop
 1950 1318 2600422C 		sltu	$2,$2,38
 1951 131c 0D004014 		bne	$2,$0,$L65
 1952 1320 00000000 		nop
 1953              	
 1954 1324 0000023C 		lui	$2,%hi($LC5)
 1955 1328 44004424 		addiu	$4,$2,%lo($LC5)
 1956 132c 0000023C 		lui	$2,%hi($LC1)
 1957 1330 04004524 		addiu	$5,$2,%lo($LC1)
 1958 1334 B6000624 		li	$6,182			# 0xb6
 1959 1338 0000023C 		lui	$2,%hi(__PRETTY_FUNCTION__.2750)
 1960 133c A4004724 		addiu	$7,$2,%lo(__PRETTY_FUNCTION__.2750)
 1961 1340 0000828F 		lw	$2,%call16(__assert_fail)($28)
 1962 1344 00000000 		nop
 1963 1348 21C84000 		move	$25,$2
 1964 134c 09F82003 		jalr	$25
 1965 1350 00000000 		nop
 1966              	
 1967              	$L65:
 182:apps/WikiUtil.c ****   len = len < outBufLen-1 ? len : outBufLen-1;
 1968              		.loc 2 183 0
 1969 1354 6000C293 		lbu	$2,96($fp)
 1970 1358 00000000 		nop
 1971 135c FFFF4224 		addiu	$2,$2,-1
 1972 1360 2000C38F 		lw	$3,32($fp)
 1973 1364 00000000 		nop
 1974 1368 2B206200 		sltu	$4,$3,$2
 1975 136c 02008010 		beq	$4,$0,$L66
 1976 1370 00000000 		nop
 1977              	
 1978 1374 21106000 		move	$2,$3
 1979              	$L66:
 1980 1378 2000C2AF 		sw	$2,32($fp)
 183:apps/WikiUtil.c ****   char r = fread(buf, len, 1, FileGetHandle());
 1981              		.loc 2 184 0
 1982 137c 0000828F 		lw	$2,%call16(FileGetHandle)($28)
 1983 1380 00000000 		nop
 1984 1384 21C84000 		move	$25,$2
 1985 1388 09F82003 		jalr	$25
 1986 138c 00000000 		nop
 1987              	
 1988 1390 1000DC8F 		lw	$28,16($fp)
 1989 1394 2800C327 		addiu	$3,$fp,40
 1990 1398 21206000 		move	$4,$3
 1991 139c 2000C58F 		lw	$5,32($fp)
 1992 13a0 01000624 		li	$6,1			# 0x1
 1993 13a4 21384000 		move	$7,$2
 1994 13a8 0000828F 		lw	$2,%call16(fread)($28)
 1995 13ac 00000000 		nop
 1996 13b0 21C84000 		move	$25,$2
 1997 13b4 09F82003 		jalr	$25
 1998 13b8 00000000 		nop
 1999              	
 2000 13bc 1000DC8F 		lw	$28,16($fp)
 2001 13c0 1C00C2A3 		sb	$2,28($fp)
 184:apps/WikiUtil.c ****   if (r != 1)
 2002              		.loc 2 185 0
 2003 13c4 1C00C383 		lb	$3,28($fp)
 2004 13c8 01000224 		li	$2,1			# 0x1
 2005 13cc 13006210 		beq	$3,$2,$L67
 2006 13d0 00000000 		nop
 2007              	
 185:apps/WikiUtil.c ****     ERRORreturn2("SectionNext: Failure to read text", 0);
 2008              		.loc 2 186 0
 2009 13d4 0000828F 		lw	$2,%got(errorFile)($28)
 2010 13d8 0000033C 		lui	$3,%hi($LC1)
 2011 13dc 04006324 		addiu	$3,$3,%lo($LC1)
 2012 13e0 000043AC 		sw	$3,0($2)
 2013 13e4 0000828F 		lw	$2,%got(errorLine)($28)
 2014 13e8 BA000324 		li	$3,186			# 0xba
 2015 13ec 000043AC 		sw	$3,0($2)
 2016 13f0 0000828F 		lw	$2,%got(errorFunc)($28)
 2017 13f4 0000033C 		lui	$3,%hi(__func__.2752)
 2018 13f8 B0006324 		addiu	$3,$3,%lo(__func__.2752)
 2019 13fc 000043AC 		sw	$3,0($2)
 2020 1400 0000828F 		lw	$2,%got(errorMsg)($28)
 2021 1404 0000033C 		lui	$3,%hi($LC6)
 2022 1408 54006324 		addiu	$3,$3,%lo($LC6)
 2023 140c 000043AC 		sw	$3,0($2)
 2024 1410 21100000 		move	$2,$0
 2025 1414 70000010 		b	$L63
 2026 1418 00000000 		nop
 2027              	
 2028              	$L67:
 186:apps/WikiUtil.c ****   buf[len] = 0x0;
 2029              		.loc 2 187 0
 2030 141c 2000C28F 		lw	$2,32($fp)
 2031 1420 1800C327 		addiu	$3,$fp,24
 2032 1424 21106200 		addu	$2,$3,$2
 2033 1428 100040A0 		sb	$0,16($2)
 2034              	$LBB7 = .
 187:apps/WikiUtil.c ****   /* Check for newlines, which immediately terminate line */
 188:apps/WikiUtil.c ****   for (int i=0; i<len; ++i) {
 2035              		.loc 2 189 0
 2036 142c 1800C0AF 		sw	$0,24($fp)
 2037 1430 14000010 		b	$L68
 2038 1434 00000000 		nop
 2039              	
 2040              	$L70:
 189:apps/WikiUtil.c ****     if (buf[i] == '\n') {
 2041              		.loc 2 190 0
 2042 1438 1800C28F 		lw	$2,24($fp)
 2043 143c 1800C327 		addiu	$3,$fp,24
 2044 1440 21106200 		addu	$2,$3,$2
 2045 1444 10004380 		lb	$3,16($2)
 2046 1448 0A000224 		li	$2,10			# 0xa
 2047 144c 09006214 		bne	$3,$2,$L69
 2048 1450 00000000 		nop
 2049              	
 190:apps/WikiUtil.c ****       buf[i] = 0x0;
 2050              		.loc 2 191 0
 2051 1454 1800C28F 		lw	$2,24($fp)
 2052 1458 1800C327 		addiu	$3,$fp,24
 2053 145c 21106200 		addu	$2,$3,$2
 2054 1460 100040A0 		sb	$0,16($2)
 191:apps/WikiUtil.c ****       len = i + 1;
 2055              		.loc 2 192 0
 2056 1464 1800C28F 		lw	$2,24($fp)
 2057 1468 00000000 		nop
 2058 146c 01004224 		addiu	$2,$2,1
 2059 1470 2000C2AF 		sw	$2,32($fp)
 2060              	$L69:
 189:apps/WikiUtil.c ****     if (buf[i] == '\n') {
 2061              		.loc 2 189 0
 2062 1474 1800C28F 		lw	$2,24($fp)
 2063 1478 00000000 		nop
 2064 147c 01004224 		addiu	$2,$2,1
 2065 1480 1800C2AF 		sw	$2,24($fp)
 2066              	$L68:
 2067 1484 1800C38F 		lw	$3,24($fp)
 2068 1488 2000C28F 		lw	$2,32($fp)
 2069 148c 00000000 		nop
 2070 1490 2B106200 		sltu	$2,$3,$2
 2071 1494 E8FF4014 		bne	$2,$0,$L70
 2072 1498 00000000 		nop
 2073              	
 2074              	$LBE7 = .
 192:apps/WikiUtil.c ****     }
 193:apps/WikiUtil.c ****   }
 194:apps/WikiUtil.c ****   /* Prevent orphaned char word splits */
 195:apps/WikiUtil.c ****   if (len > 3 && buf[len-1] != ' ') {
 2075              		.loc 2 196 0
 2076 149c 2000C28F 		lw	$2,32($fp)
 2077 14a0 00000000 		nop
 2078 14a4 0400422C 		sltu	$2,$2,4
 2079 14a8 32004014 		bne	$2,$0,$L71
 2080 14ac 00000000 		nop
 2081              	
 2082 14b0 2000C28F 		lw	$2,32($fp)
 2083 14b4 00000000 		nop
 2084 14b8 FFFF4224 		addiu	$2,$2,-1
 2085 14bc 1800C327 		addiu	$3,$fp,24
 2086 14c0 21106200 		addu	$2,$3,$2
 2087 14c4 10004380 		lb	$3,16($2)
 2088 14c8 20000224 		li	$2,32			# 0x20
 2089 14cc 29006210 		beq	$3,$2,$L71
 2090 14d0 00000000 		nop
 2091              	
 196:apps/WikiUtil.c ****     if (buf[len-3] == ' ') {
 2092              		.loc 2 197 0
 2093 14d4 2000C28F 		lw	$2,32($fp)
 2094 14d8 00000000 		nop
 2095 14dc FDFF4224 		addiu	$2,$2,-3
 2096 14e0 1800C327 		addiu	$3,$fp,24
 2097 14e4 21106200 		addu	$2,$3,$2
 2098 14e8 10004380 		lb	$3,16($2)
 2099 14ec 20000224 		li	$2,32			# 0x20
 2100 14f0 0D006214 		bne	$3,$2,$L72
 2101 14f4 00000000 		nop
 2102              	
 197:apps/WikiUtil.c ****       buf[len-3] = 0x0;
 2103              		.loc 2 198 0
 2104 14f8 2000C28F 		lw	$2,32($fp)
 2105 14fc 00000000 		nop
 2106 1500 FDFF4224 		addiu	$2,$2,-3
 2107 1504 1800C327 		addiu	$3,$fp,24
 2108 1508 21106200 		addu	$2,$3,$2
 2109 150c 100040A0 		sb	$0,16($2)
 198:apps/WikiUtil.c ****       len -= 2;
 2110              		.loc 2 199 0
 2111 1510 2000C28F 		lw	$2,32($fp)
 2112 1514 00000000 		nop
 2113 1518 FEFF4224 		addiu	$2,$2,-2
 2114 151c 2000C2AF 		sw	$2,32($fp)
 2115 1520 14000010 		b	$L71
 2116 1524 00000000 		nop
 2117              	
 2118              	$L72:
 199:apps/WikiUtil.c ****     } else if (buf[len-2] == ' ') {
 2119              		.loc 2 200 0
 2120 1528 2000C28F 		lw	$2,32($fp)
 2121 152c 00000000 		nop
 2122 1530 FEFF4224 		addiu	$2,$2,-2
 2123 1534 1800C327 		addiu	$3,$fp,24
 2124 1538 21106200 		addu	$2,$3,$2
 2125 153c 10004380 		lb	$3,16($2)
 2126 1540 20000224 		li	$2,32			# 0x20
 2127 1544 0B006214 		bne	$3,$2,$L71
 2128 1548 00000000 		nop
 2129              	
 200:apps/WikiUtil.c ****       buf[len-2] = 0x0;
 2130              		.loc 2 201 0
 2131 154c 2000C28F 		lw	$2,32($fp)
 2132 1550 00000000 		nop
 2133 1554 FEFF4224 		addiu	$2,$2,-2
 2134 1558 1800C327 		addiu	$3,$fp,24
 2135 155c 21106200 		addu	$2,$3,$2
 2136 1560 100040A0 		sb	$0,16($2)
 201:apps/WikiUtil.c ****       len -= 1;
 2137              		.loc 2 202 0
 2138 1564 2000C28F 		lw	$2,32($fp)
 2139 1568 00000000 		nop
 2140 156c FFFF4224 		addiu	$2,$2,-1
 2141 1570 2000C2AF 		sw	$2,32($fp)
 2142              	$L71:
 202:apps/WikiUtil.c ****     }
 203:apps/WikiUtil.c ****   }
 204:apps/WikiUtil.c ****   if (outBuf)
 2143              		.loc 2 205 0
 2144 1574 5C00C28F 		lw	$2,92($fp)
 2145 1578 00000000 		nop
 2146 157c 0C004010 		beq	$2,$0,$L73
 2147 1580 00000000 		nop
 2148              	
 205:apps/WikiUtil.c ****     strncpy(outBuf, buf, outBufLen);
 2149              		.loc 2 206 0
 2150 1584 2800C327 		addiu	$3,$fp,40
 2151 1588 6000C293 		lbu	$2,96($fp)
 2152 158c 5C00C48F 		lw	$4,92($fp)
 2153 1590 21286000 		move	$5,$3
 2154 1594 21304000 		move	$6,$2
 2155 1598 0000828F 		lw	$2,%call16(strncpy)($28)
 2156 159c 00000000 		nop
 2157 15a0 21C84000 		move	$25,$2
 2158 15a4 09F82003 		jalr	$25
 2159 15a8 00000000 		nop
 2160              	
 2161 15ac 1000DC8F 		lw	$28,16($fp)
 2162              	$L73:
 206:apps/WikiUtil.c ****   wa->textOffset += len;
 2163              		.loc 2 207 0
 2164 15b0 2400C28F 		lw	$2,36($fp)
 2165 15b4 00000000 		nop
 2166 15b8 5400438C 		lw	$3,84($2)
 2167 15bc 2000C28F 		lw	$2,32($fp)
 2168 15c0 00000000 		nop
 2169 15c4 21186200 		addu	$3,$3,$2
 2170 15c8 2400C28F 		lw	$2,36($fp)
 2171 15cc 00000000 		nop
 2172 15d0 540043AC 		sw	$3,84($2)
 207:apps/WikiUtil.c ****   return 1;
 2173              		.loc 2 208 0
 2174 15d4 01000224 		li	$2,1			# 0x1
 2175              	$L63:
 208:apps/WikiUtil.c **** }
 2176              		.loc 2 209 0
 2177 15d8 21E8C003 		move	$sp,$fp
 2178 15dc 5400BF8F 		lw	$31,84($sp)
 2179 15e0 5000BE8F 		lw	$fp,80($sp)
 2180 15e4 5800BD27 		addiu	$sp,$sp,88
 2181 15e8 0800E003 		j	$31
 2182 15ec 00000000 		nop
 2183              	
 2184              		.set	macro
 2185              		.set	reorder
 2186              		.end	SectionNext
 2187              	$LFE18:
 2189              		.align	2
 2190              		.globl	SectionRestart
 2191              	$LFB19 = .
 209:apps/WikiUtil.c **** 
 210:apps/WikiUtil.c **** void SectionRestart(ListGen *gen) {
 2192              		.loc 2 211 0
 2193              		.set	nomips16
 2194              		.ent	SectionRestart
 2196              	SectionRestart:
 2197              		.frame	$fp,24,$31		# vars= 8, regs= 1/0, args= 0, gp= 8
 2198              		.mask	0x40000000,-4
 2199              		.fmask	0x00000000,0
 2200              		.set	noreorder
 2201              		.set	nomacro
 2202              		
 2203 15f0 E8FFBD27 		addiu	$sp,$sp,-24
 2204              	$LCFI70:
 2205 15f4 1400BEAF 		sw	$fp,20($sp)
 2206              	$LCFI71:
 2207 15f8 21F0A003 		move	$fp,$sp
 2208              	$LCFI72:
 2209 15fc 1800C4AF 		sw	$4,24($fp)
 211:apps/WikiUtil.c ****   SectionView *wa = (SectionView *) gen->userData;
 2210              		.loc 2 212 0
 2211 1600 1800C28F 		lw	$2,24($fp)
 2212 1604 00000000 		nop
 2213 1608 0800428C 		lw	$2,8($2)
 2214 160c 00000000 		nop
 2215 1610 0800C2AF 		sw	$2,8($fp)
 212:apps/WikiUtil.c ****   wa->textOffset = wa->textStartOffset;
 2216              		.loc 2 213 0
 2217 1614 0800C28F 		lw	$2,8($fp)
 2218 1618 00000000 		nop
 2219 161c 5000438C 		lw	$3,80($2)
 2220 1620 0800C28F 		lw	$2,8($fp)
 2221 1624 00000000 		nop
 2222 1628 540043AC 		sw	$3,84($2)
 213:apps/WikiUtil.c **** }
 2223              		.loc 2 214 0
 2224 162c 21E8C003 		move	$sp,$fp
 2225 1630 1400BE8F 		lw	$fp,20($sp)
 2226 1634 1800BD27 		addiu	$sp,$sp,24
 2227 1638 0800E003 		j	$31
 2228 163c 00000000 		nop
 2229              	
 2230              		.set	macro
 2231              		.set	reorder
 2232              		.end	SectionRestart
 2233              	$LFE19:
 2235              		.rdata
 2236 0076 0000     		.align	2
 2237              	$LC7:
 2238 0078 706F7320 		.ascii	"pos != ((BlockAddrT) -1)\000"
 2238      213D2028 
 2238      28426C6F 
 2238      636B4164 
 2238      64725429 
 2239              		.text
 2240              		.align	2
 2241              		.globl	SectionViewInit
 2242              	$LFB20 = .
 214:apps/WikiUtil.c **** 
 215:apps/WikiUtil.c **** void SectionViewInit(SectionView *sc, Cursor *cur, DbContext *context, unsigned char startRow, unsi
 2243              		.loc 2 216 0
 2244              		.set	nomips16
 2245              		.ent	SectionViewInit
 2247              	SectionViewInit:
 2248              		.frame	$fp,168,$31		# vars= 96, regs= 3/0, args= 48, gp= 8
 2249              		.mask	0xc0010000,-4
 2250              		.fmask	0x00000000,0
 2251              		.set	noreorder
 2252              		.set	nomacro
 2253              		
 2254 1640 58FFBD27 		addiu	$sp,$sp,-168
 2255              	$LCFI73:
 2256 1644 A400BFAF 		sw	$31,164($sp)
 2257              	$LCFI74:
 2258 1648 A000BEAF 		sw	$fp,160($sp)
 2259              	$LCFI75:
 2260 164c 9C00B0AF 		sw	$16,156($sp)
 2261              	$LCFI76:
 2262 1650 21F0A003 		move	$fp,$sp
 2263              	$LCFI77:
 2264 1654 00001C3C 		lui	$28,%hi(__gnu_local_gp)
 2265 1658 00009C27 		addiu	$28,$28,%lo(__gnu_local_gp)
 2266 165c 3000BCAF 		.cprestore	48
 2267 1660 A800C4AF 		sw	$4,168($fp)
 2268 1664 AC00C5AF 		sw	$5,172($fp)
 2269 1668 B000C6AF 		sw	$6,176($fp)
 2270 166c 2118E000 		move	$3,$7
 2271 1670 B800C28F 		lw	$2,184($fp)
 2272 1674 B400C3A3 		sb	$3,180($fp)
 2273 1678 5800C2A3 		sb	$2,88($fp)
 216:apps/WikiUtil.c ****   sc->pageContext = context;
 2274              		.loc 2 217 0
 2275 167c A800C28F 		lw	$2,168($fp)
 2276 1680 B000C38F 		lw	$3,176($fp)
 2277 1684 00000000 		nop
 2278 1688 000043AC 		sw	$3,0($2)
 217:apps/WikiUtil.c ****   CursorDup(&sc->cursor, cur);
 2279              		.loc 2 218 0
 2280 168c A800C28F 		lw	$2,168($fp)
 2281 1690 00000000 		nop
 2282 1694 04004224 		addiu	$2,$2,4
 2283 1698 21204000 		move	$4,$2
 2284 169c AC00C58F 		lw	$5,172($fp)
 2285 16a0 0000828F 		lw	$2,%call16(CursorDup)($28)
 2286 16a4 00000000 		nop
 2287 16a8 21C84000 		move	$25,$2
 2288 16ac 09F82003 		jalr	$25
 2289 16b0 00000000 		nop
 2290              	
 2291 16b4 3000DC8F 		lw	$28,48($fp)
 218:apps/WikiUtil.c ****   ListGen textGen = ListGenCreate(SectionNext, SectionRestart, (void*) sc);
 2292              		.loc 2 219 0
 2293 16b8 A800C28F 		lw	$2,168($fp)
 2294 16bc 3C00C327 		addiu	$3,$fp,60
 2295 16c0 21206000 		move	$4,$3
 2296 16c4 0000033C 		lui	$3,%hi(SectionNext)
 2297 16c8 00006524 		addiu	$5,$3,%lo(SectionNext)
 2298 16cc 0000033C 		lui	$3,%hi(SectionRestart)
 2299 16d0 00006624 		addiu	$6,$3,%lo(SectionRestart)
 2300 16d4 21384000 		move	$7,$2
 2301 16d8 0000828F 		lw	$2,%call16(ListGenCreate)($28)
 2302 16dc 00000000 		nop
 2303 16e0 21C84000 		move	$25,$2
 2304 16e4 09F82003 		jalr	$25
 2305 16e8 00000000 		nop
 2306              	
 2307 16ec 3000DC8F 		lw	$28,48($fp)
 219:apps/WikiUtil.c ****   sc->textView = ListViewCreate(textGen, startRow+1, nRows-1, 0, nRows/2);
 2308              		.loc 2 220 0
 2309 16f0 B400C293 		lbu	$2,180($fp)
 2310 16f4 00000000 		nop
 2311 16f8 01004224 		addiu	$2,$2,1
 2312 16fc FF004230 		andi	$2,$2,0x00ff
 2313 1700 21284000 		move	$5,$2
 2314 1704 5800C293 		lbu	$2,88($fp)
 2315 1708 00000000 		nop
 2316 170c FFFF4224 		addiu	$2,$2,-1
 2317 1710 FF004230 		andi	$2,$2,0x00ff
 2318 1714 21204000 		move	$4,$2
 2319 1718 5800C293 		lbu	$2,88($fp)
 2320 171c 00000000 		nop
 2321 1720 42100200 		srl	$2,$2,1
 2322 1724 FF004230 		andi	$2,$2,0x00ff
 2323 1728 21184000 		move	$3,$2
 2324 172c A800D08F 		lw	$16,168($fp)
 2325 1730 6000C227 		addiu	$2,$fp,96
 2326 1734 1C00A5AF 		sw	$5,28($sp)
 2327 1738 2000A4AF 		sw	$4,32($sp)
 2328 173c 2400A0AF 		sw	$0,36($sp)
 2329 1740 2800A3AF 		sw	$3,40($sp)
 2330 1744 4800C58F 		lw	$5,72($fp)
 2331 1748 4C00C48F 		lw	$4,76($fp)
 2332 174c 5000C38F 		lw	$3,80($fp)
 2333 1750 1000A5AF 		sw	$5,16($sp)
 2334 1754 1400A4AF 		sw	$4,20($sp)
 2335 1758 1800A3AF 		sw	$3,24($sp)
 2336 175c 3C00C58F 		lw	$5,60($fp)
 2337 1760 4000C68F 		lw	$6,64($fp)
 2338 1764 4400C78F 		lw	$7,68($fp)
 2339 1768 21204000 		move	$4,$2
 2340 176c 0000828F 		lw	$2,%call16(ListViewCreate)($28)
 2341 1770 00000000 		nop
 2342 1774 21C84000 		move	$25,$2
 2343 1778 09F82003 		jalr	$25
 2344 177c 00000000 		nop
 2345              	
 2346 1780 3000DC8F 		lw	$28,48($fp)
 2347 1784 1C000426 		addiu	$4,$16,28
 2348 1788 6000C327 		addiu	$3,$fp,96
 2349 178c 34000224 		li	$2,52			# 0x34
 2350 1790 21286000 		move	$5,$3
 2351 1794 21304000 		move	$6,$2
 2352 1798 0000828F 		lw	$2,%call16(memcpy)($28)
 2353 179c 00000000 		nop
 2354 17a0 21C84000 		move	$25,$2
 2355 17a4 09F82003 		jalr	$25
 2356 17a8 00000000 		nop
 2357              	
 2358 17ac 3000DC8F 		lw	$28,48($fp)
 220:apps/WikiUtil.c ****   KeyT pos = CursorNext(cur);
 2359              		.loc 2 221 0
 2360 17b0 AC00C48F 		lw	$4,172($fp)
 2361 17b4 0000828F 		lw	$2,%call16(CursorNext)($28)
 2362 17b8 00000000 		nop
 2363 17bc 21C84000 		move	$25,$2
 2364 17c0 09F82003 		jalr	$25
 2365 17c4 00000000 		nop
 2366              	
 2367 17c8 3000DC8F 		lw	$28,48($fp)
 2368 17cc 3800C2AF 		sw	$2,56($fp)
 221:apps/WikiUtil.c ****   assert(pos != BAInvalid);
 2369              		.loc 2 222 0
 2370 17d0 3800C38F 		lw	$3,56($fp)
 2371 17d4 FFFF0224 		li	$2,-1			# 0xffffffffffffffff
 2372 17d8 0D006214 		bne	$3,$2,$L78
 2373 17dc 00000000 		nop
 2374              	
 2375 17e0 0000023C 		lui	$2,%hi($LC7)
 2376 17e4 78004424 		addiu	$4,$2,%lo($LC7)
 2377 17e8 0000023C 		lui	$2,%hi($LC1)
 2378 17ec 04004524 		addiu	$5,$2,%lo($LC1)
 2379 17f0 DE000624 		li	$6,222			# 0xde
 2380 17f4 0000023C 		lui	$2,%hi(__PRETTY_FUNCTION__.2830)
 2381 17f8 94004724 		addiu	$7,$2,%lo(__PRETTY_FUNCTION__.2830)
 2382 17fc 0000828F 		lw	$2,%call16(__assert_fail)($28)
 2383 1800 00000000 		nop
 2384 1804 21C84000 		move	$25,$2
 2385 1808 09F82003 		jalr	$25
 2386 180c 00000000 		nop
 2387              	
 2388              	$L78:
 222:apps/WikiUtil.c ****   FileOpenRO(context->blobFname);
 2389              		.loc 2 223 0
 2390 1810 B000C28F 		lw	$2,176($fp)
 2391 1814 00000000 		nop
 2392 1818 0800428C 		lw	$2,8($2)
 2393 181c 00000000 		nop
 2394 1820 21204000 		move	$4,$2
 2395 1824 0000828F 		lw	$2,%call16(FileOpenRO)($28)
 2396 1828 00000000 		nop
 2397 182c 21C84000 		move	$25,$2
 2398 1830 09F82003 		jalr	$25
 2399 1834 00000000 		nop
 2400              	
 2401 1838 3000DC8F 		lw	$28,48($fp)
 223:apps/WikiUtil.c ****   FileSeek(pos);
 2402              		.loc 2 224 0
 2403 183c 3800C48F 		lw	$4,56($fp)
 2404 1840 0000828F 		lw	$2,%call16(FileSeek)($28)
 2405 1844 00000000 		nop
 2406 1848 21C84000 		move	$25,$2
 2407 184c 09F82003 		jalr	$25
 2408 1850 00000000 		nop
 2409              	
 2410 1854 3000DC8F 		lw	$28,48($fp)
 2411 1858 00000000 		nop
 224:apps/WikiUtil.c ****   sc->textOffset = sc->textStartOffset = pos + 4 + SchemaGetOffset(FileGetHandle(), WIKI_SCHEMA, WI
 2412              		.loc 2 225 0
 2413 185c 0000828F 		lw	$2,%call16(FileGetHandle)($28)
 2414 1860 00000000 		nop
 2415 1864 21C84000 		move	$25,$2
 2416 1868 09F82003 		jalr	$25
 2417 186c 00000000 		nop
 2418              	
 2419 1870 3000DC8F 		lw	$28,48($fp)
 2420 1874 21204000 		move	$4,$2
 2421 1878 0000023C 		lui	$2,%hi($LC2)
 2422 187c 14004524 		addiu	$5,$2,%lo($LC2)
 2423 1880 03000624 		li	$6,3			# 0x3
 2424 1884 0000828F 		lw	$2,%call16(SchemaGetOffset)($28)
 2425 1888 00000000 		nop
 2426 188c 21C84000 		move	$25,$2
 2427 1890 09F82003 		jalr	$25
 2428 1894 00000000 		nop
 2429              	
 2430 1898 3000DC8F 		lw	$28,48($fp)
 2431 189c 21184000 		move	$3,$2
 2432 18a0 3800C28F 		lw	$2,56($fp)
 2433 18a4 00000000 		nop
 2434 18a8 21106200 		addu	$2,$3,$2
 2435 18ac 04004324 		addiu	$3,$2,4
 2436 18b0 A800C28F 		lw	$2,168($fp)
 2437 18b4 00000000 		nop
 2438 18b8 500043AC 		sw	$3,80($2)
 2439 18bc A800C28F 		lw	$2,168($fp)
 2440 18c0 00000000 		nop
 2441 18c4 5000438C 		lw	$3,80($2)
 2442 18c8 A800C28F 		lw	$2,168($fp)
 2443 18cc 00000000 		nop
 2444 18d0 540043AC 		sw	$3,84($2)
 225:apps/WikiUtil.c ****   sc->textLength = GetStringLen(pos, WIKI_SCHEMA, WIKI_TEXT);
 2445              		.loc 2 226 0
 2446 18d4 3800C48F 		lw	$4,56($fp)
 2447 18d8 0000023C 		lui	$2,%hi($LC2)
 2448 18dc 14004524 		addiu	$5,$2,%lo($LC2)
 2449 18e0 03000624 		li	$6,3			# 0x3
 2450              		.option	pic0
 2451 18e4 9400000C 		jal	GetStringLen
 2452 18e8 00000000 		nop
 2453              	
 2454              		.option	pic2
 2455 18ec 3000DC8F 		lw	$28,48($fp)
 2456 18f0 21184000 		move	$3,$2
 2457 18f4 A800C28F 		lw	$2,168($fp)
 2458 18f8 00000000 		nop
 2459 18fc 580043AC 		sw	$3,88($2)
 226:apps/WikiUtil.c **** }
 2460              		.loc 2 227 0
 2461 1900 21E8C003 		move	$sp,$fp
 2462 1904 A400BF8F 		lw	$31,164($sp)
 2463 1908 A000BE8F 		lw	$fp,160($sp)
 2464 190c 9C00B08F 		lw	$16,156($sp)
 2465 1910 A800BD27 		addiu	$sp,$sp,168
 2466 1914 0800E003 		j	$31
 2467 1918 00000000 		nop
 2468              	
 2469              		.set	macro
 2470              		.set	reorder
 2471              		.end	SectionViewInit
 2472              	$LFE20:
 2474              		.align	2
 2475              		.globl	SectionViewDestroy
 2476              	$LFB21 = .
 227:apps/WikiUtil.c **** 
 228:apps/WikiUtil.c **** void SectionViewDestroy(SectionView *sc) {
 2477              		.loc 2 229 0
 2478              		.set	nomips16
 2479              		.ent	SectionViewDestroy
 2481              	SectionViewDestroy:
 2482              		.frame	$fp,32,$31		# vars= 0, regs= 2/0, args= 16, gp= 8
 2483              		.mask	0xc0000000,-4
 2484              		.fmask	0x00000000,0
 2485              		.set	noreorder
 2486              		.set	nomacro
 2487              		
 2488 191c E0FFBD27 		addiu	$sp,$sp,-32
 2489              	$LCFI78:
 2490 1920 1C00BFAF 		sw	$31,28($sp)
 2491              	$LCFI79:
 2492 1924 1800BEAF 		sw	$fp,24($sp)
 2493              	$LCFI80:
 2494 1928 21F0A003 		move	$fp,$sp
 2495              	$LCFI81:
 2496 192c 00001C3C 		lui	$28,%hi(__gnu_local_gp)
 2497 1930 00009C27 		addiu	$28,$28,%lo(__gnu_local_gp)
 2498 1934 1000BCAF 		.cprestore	16
 2499 1938 2000C4AF 		sw	$4,32($fp)
 229:apps/WikiUtil.c ****   CursorDestroy(&sc->cursor);
 2500              		.loc 2 230 0
 2501 193c 2000C28F 		lw	$2,32($fp)
 2502 1940 00000000 		nop
 2503 1944 04004224 		addiu	$2,$2,4
 2504 1948 21204000 		move	$4,$2
 2505 194c 0000828F 		lw	$2,%call16(CursorDestroy)($28)
 2506 1950 00000000 		nop
 2507 1954 21C84000 		move	$25,$2
 2508 1958 09F82003 		jalr	$25
 2509 195c 00000000 		nop
 2510              	
 2511 1960 1000DC8F 		lw	$28,16($fp)
 230:apps/WikiUtil.c **** }
 2512              		.loc 2 231 0
 2513 1964 21E8C003 		move	$sp,$fp
 2514 1968 1C00BF8F 		lw	$31,28($sp)
 2515 196c 1800BE8F 		lw	$fp,24($sp)
 2516 1970 2000BD27 		addiu	$sp,$sp,32
 2517 1974 0800E003 		j	$31
 2518 1978 00000000 		nop
 2519              	
 2520              		.set	macro
 2521              		.set	reorder
 2522              		.end	SectionViewDestroy
 2523              	$LFE21:
 2525              		.rdata
 2526 0091 000000   		.align	2
 2529              	__PRETTY_FUNCTION__.2830:
 2530 0094 53656374 		.ascii	"SectionViewInit\000"
 2530      696F6E56 
 2530      69657749 
 2530      6E697400 
 2531              		.align	2
 2534              	__PRETTY_FUNCTION__.2750:
 2535 00a4 53656374 		.ascii	"SectionNext\000"
 2535      696F6E4E 
 2535      65787400 
 2536              		.align	2
 2539              	__func__.2752:
 2540 00b0 53656374 		.ascii	"SectionNext\000"
 2540      696F6E4E 
 2540      65787400 
 2541              		.align	2
 2544              	__PRETTY_FUNCTION__.2685:
 2545 00bc 5072654E 		.ascii	"PreNext\000"
 2545      65787400 
 2546              		.align	2
 2549              	__PRETTY_FUNCTION__.2545:
 2550 00c4 43616C63 		.ascii	"CalcUpperCRC\000"
 2550      55707065 
 2550      72435243 
 2550      00
 3053              	$Letext0:
DEFINED SYMBOLS
                            *ABS*:0000000000000000 bgtree/bgApi.h
     /tmp/ccV2yJjs.s:20     .text:0000000000000000 CursorIsInvalid
     /tmp/ccV2yJjs.s:59     .text:0000000000000038 GetUInt
     /tmp/ccV2yJjs.s:128    .text:00000000000000d4 GetInt
     /tmp/ccV2yJjs.s:200    .text:0000000000000178 GetString
     /tmp/ccV2yJjs.s:289    .text:0000000000000250 GetStringLen
     /tmp/ccV2yJjs.s:358    .text:00000000000002ec ToUpper
     /tmp/ccV2yJjs.s:427    .text:0000000000000360 CalcUpperCRC
     /tmp/ccV2yJjs.s:2549   .rodata:00000000000000c4 __PRETTY_FUNCTION__.2545
                            *COM*:0000000000000018 tocLastCur
     /tmp/ccV2yJjs.s:574    .text:00000000000004c8 TocNext
     /tmp/ccV2yJjs.s:772    .text:00000000000006c8 TocRestart
     /tmp/ccV2yJjs.s:833    .text:000000000000074c TocInit
     /tmp/ccV2yJjs.s:985    .text:0000000000000918 TocDestroy
     /tmp/ccV2yJjs.s:1048   .text:00000000000009a0 SearchNext
     /tmp/ccV2yJjs.s:1238   .text:0000000000000b6c SearchRestart
     /tmp/ccV2yJjs.s:1355   .text:0000000000000c8c PreNext
     /tmp/ccV2yJjs.s:2544   .rodata:00000000000000bc __PRETTY_FUNCTION__.2685
     /tmp/ccV2yJjs.s:1555   .text:0000000000000ea4 PreRestart
     /tmp/ccV2yJjs.s:1664   .text:0000000000000fc4 SearchViewInit
     /tmp/ccV2yJjs.s:1841   .text:00000000000011d4 SectionNext
     /tmp/ccV2yJjs.s:2534   .rodata:00000000000000a4 __PRETTY_FUNCTION__.2750
     /tmp/ccV2yJjs.s:2539   .rodata:00000000000000b0 __func__.2752
     /tmp/ccV2yJjs.s:2196   .text:00000000000015f0 SectionRestart
     /tmp/ccV2yJjs.s:2247   .text:0000000000001640 SectionViewInit
     /tmp/ccV2yJjs.s:2529   .rodata:0000000000000094 __PRETTY_FUNCTION__.2830
     /tmp/ccV2yJjs.s:2481   .text:000000000000191c SectionViewDestroy

UNDEFINED SYMBOLS
__gnu_local_gp
FileGetHandle
FileSeek
SchemaGetUInt
SchemaGetInt
errorMsg
SchemaGetString
SchemaGetStringLen
__assert_fail
strlen
CalcCRC
CursorDup
CursorNext
FileOpenRO
TreeInit
ListGenCreate
ListCmdrInit
SelectConsecutiveKeys
ListGenRestart
CursorDestroy
MorseBoxGetBuffer
SelectKey
snprintf
ConcatGenCreate
fread
errorFile
errorLine
errorFunc
strncpy
ListViewCreate
memcpy
SchemaGetOffset
