   1              		.section .mdebug.abi32
   2              		.previous
   3              		.gnu_attribute 4, 3
   4              		.abicalls
  12              	$Ltext0:
  13              		.align	2
  14              		.globl	sounder
  15              	$LFB0 = .
  16              		.file 1 "platform/PosixPlatform.c"
   0:platform/PosixPlatform.c **** void sounder(int onOrOff, int msec) { }
  17              		.loc 1 1 0
  18              		.set	nomips16
  19              		.ent	sounder
  21              	sounder:
  22              		.frame	$fp,8,$31		# vars= 0, regs= 1/0, args= 0, gp= 0
  23              		.mask	0x40000000,-4
  24              		.fmask	0x00000000,0
  25              		.set	noreorder
  26              		.set	nomacro
  27              		
  28 0000 F8FFBD27 		addiu	$sp,$sp,-8
  29              	$LCFI0:
  30 0004 0400BEAF 		sw	$fp,4($sp)
  31              	$LCFI1:
  32 0008 21F0A003 		move	$fp,$sp
  33              	$LCFI2:
  34 000c 0800C4AF 		sw	$4,8($fp)
  35 0010 0C00C5AF 		sw	$5,12($fp)
  36              		.loc 1 1 0
  37 0014 21E8C003 		move	$sp,$fp
  38 0018 0400BE8F 		lw	$fp,4($sp)
  39 001c 0800BD27 		addiu	$sp,$sp,8
  40 0020 0800E003 		j	$31
  41 0024 00000000 		nop
  42              	
  43              		.set	macro
  44              		.set	reorder
  45              		.end	sounder
  46              	$LFE0:
  48              	
  49              		.comm	tios,52,4
  50              	
  51              		.comm	orig_tios,52,4
  52              		.rdata
  53              		.align	2
  54              	$LC0:
  55 0000 44454255 		.ascii	"DEBUG: StdioDestroy()\012\000"
  55      473A2053 
  55      7464696F 
  55      44657374 
  55      726F7928 
  56              		.text
  57              		.align	2
  58              		.globl	StdioDestroy
  59              	$LFB1 = .
   1:platform/PosixPlatform.c **** 
   2:platform/PosixPlatform.c **** /** Under Posix we use the normal stdio, set to non-blocking cannonical mode **/
   3:platform/PosixPlatform.c **** #include <signal.h>
   4:platform/PosixPlatform.c **** #include <termios.h>
   5:platform/PosixPlatform.c **** #include <unistd.h>
   6:platform/PosixPlatform.c **** #include <stdio.h>
   7:platform/PosixPlatform.c **** #include <sys/time.h>
   8:platform/PosixPlatform.c **** #include <stdint.h>
   9:platform/PosixPlatform.c **** #include <stdlib.h>
  10:platform/PosixPlatform.c **** #include <sys/select.h>
  11:platform/PosixPlatform.c **** #include "Errors.h"
  12:platform/PosixPlatform.c **** #include "Platform.h"
  13:platform/PosixPlatform.c **** 
  14:platform/PosixPlatform.c **** struct termios tios, orig_tios;
  15:platform/PosixPlatform.c **** 
  16:platform/PosixPlatform.c **** void StdioDestroy() {
  60              		.loc 1 17 0
  61              		.set	nomips16
  62              		.ent	StdioDestroy
  64              	StdioDestroy:
  65              		.frame	$fp,32,$31		# vars= 0, regs= 2/0, args= 16, gp= 8
  66              		.mask	0xc0000000,-4
  67              		.fmask	0x00000000,0
  68              		.set	noreorder
  69              		.set	nomacro
  70              		
  71 0028 E0FFBD27 		addiu	$sp,$sp,-32
  72              	$LCFI3:
  73 002c 1C00BFAF 		sw	$31,28($sp)
  74              	$LCFI4:
  75 0030 1800BEAF 		sw	$fp,24($sp)
  76              	$LCFI5:
  77 0034 21F0A003 		move	$fp,$sp
  78              	$LCFI6:
  79 0038 00001C3C 		lui	$28,%hi(__gnu_local_gp)
  80 003c 00009C27 		addiu	$28,$28,%lo(__gnu_local_gp)
  81 0040 1000BCAF 		.cprestore	16
  17:platform/PosixPlatform.c ****   fprintf(stderr,"DEBUG: StdioDestroy()\n");
  82              		.loc 1 18 0
  83 0044 0000023C 		lui	$2,%hi($LC0)
  84 0048 00004324 		addiu	$3,$2,%lo($LC0)
  85 004c 0000828F 		lw	$2,%got(stderr)($28)
  86 0050 00000000 		nop
  87 0054 0000428C 		lw	$2,0($2)
  88 0058 21206000 		move	$4,$3
  89 005c 01000524 		li	$5,1			# 0x1
  90 0060 16000624 		li	$6,22			# 0x16
  91 0064 21384000 		move	$7,$2
  92 0068 0000828F 		lw	$2,%call16(fwrite)($28)
  93 006c 00000000 		nop
  94 0070 21C84000 		move	$25,$2
  95 0074 09F82003 		jalr	$25
  96 0078 00000000 		nop
  97              	
  98 007c 1000DC8F 		lw	$28,16($fp)
  18:platform/PosixPlatform.c ****   /* Restore terminal settings */
  19:platform/PosixPlatform.c ****   tcsetattr(0, TCSANOW, &orig_tios);
  99              		.loc 1 20 0
 100 0080 21200000 		move	$4,$0
 101 0084 0E540524 		li	$5,21518			# 0x540e
 102 0088 0000868F 		lw	$6,%got(orig_tios)($28)
 103 008c 0000828F 		lw	$2,%call16(tcsetattr)($28)
 104 0090 00000000 		nop
 105 0094 21C84000 		move	$25,$2
 106 0098 09F82003 		jalr	$25
 107 009c 00000000 		nop
 108              	
 109 00a0 1000DC8F 		lw	$28,16($fp)
  20:platform/PosixPlatform.c **** }
 110              		.loc 1 21 0
 111 00a4 21E8C003 		move	$sp,$fp
 112 00a8 1C00BF8F 		lw	$31,28($sp)
 113 00ac 1800BE8F 		lw	$fp,24($sp)
 114 00b0 2000BD27 		addiu	$sp,$sp,32
 115 00b4 0800E003 		j	$31
 116 00b8 00000000 		nop
 117              	
 118              		.set	macro
 119              		.set	reorder
 120              		.end	StdioDestroy
 121              	$LFE1:
 123              		.rdata
 124 0017 00       		.align	2
 125              	$LC1:
 126 0018 706C6174 		.ascii	"platform/PosixPlatform.c\000"
 126      666F726D 
 126      2F506F73 
 126      6978506C 
 126      6174666F 
 127 0031 000000   		.align	2
 128              	$LC2:
 129 0034 4572726F 		.ascii	"Error getting tios terminal settings\000"
 129      72206765 
 129      7474696E 
 129      67207469 
 129      6F732074 
 130 0059 000000   		.align	2
 131              	$LC3:
 132 005c 4572726F 		.ascii	"Error applying terminal settings\000"
 132      72206170 
 132      706C7969 
 132      6E672074 
 132      65726D69 
 133 007d 000000   		.align	2
 134              	$LC4:
 135 0080 4572726F 		.ascii	"Error while asserting terminal settings\000"
 135      72207768 
 135      696C6520 
 135      61737365 
 135      7274696E 
 136              		.align	2
 137              	$LC5:
 138 00a8 436F756C 		.ascii	"Could not apply all terminal settings\000"
 138      64206E6F 
 138      74206170 
 138      706C7920 
 138      616C6C20 
 139              		.text
 140              		.align	2
 141              		.globl	StdioInit
 142              	$LFB2 = .
  21:platform/PosixPlatform.c **** 
  22:platform/PosixPlatform.c **** void StdioInit() {
 143              		.loc 1 23 0
 144              		.set	nomips16
 145              		.ent	StdioInit
 147              	StdioInit:
 148              		.frame	$fp,176,$31		# vars= 144, regs= 2/0, args= 16, gp= 8
 149              		.mask	0xc0000000,-4
 150              		.fmask	0x00000000,0
 151              		.set	noreorder
 152              		.set	nomacro
 153              		
 154 00bc 50FFBD27 		addiu	$sp,$sp,-176
 155              	$LCFI7:
 156 00c0 AC00BFAF 		sw	$31,172($sp)
 157              	$LCFI8:
 158 00c4 A800BEAF 		sw	$fp,168($sp)
 159              	$LCFI9:
 160 00c8 21F0A003 		move	$fp,$sp
 161              	$LCFI10:
 162 00cc 00001C3C 		lui	$28,%hi(__gnu_local_gp)
 163 00d0 00009C27 		addiu	$28,$28,%lo(__gnu_local_gp)
 164 00d4 1000BCAF 		.cprestore	16
  23:platform/PosixPlatform.c ****   struct sigaction saio;           /* definition of signal action */
  24:platform/PosixPlatform.c **** 
  25:platform/PosixPlatform.c ****   /* install the signal handler before making the device asynchronous */
  26:platform/PosixPlatform.c ****   saio.sa_handler = StdioDestroy;
 165              		.loc 1 27 0
 166 00d8 0000023C 		lui	$2,%hi(StdioDestroy)
 167 00dc 00004224 		addiu	$2,$2,%lo(StdioDestroy)
 168 00e0 1C00C2AF 		sw	$2,28($fp)
  27:platform/PosixPlatform.c ****   sigemptyset(&saio.sa_mask);
 169              		.loc 1 28 0
 170 00e4 2000C227 		addiu	$2,$fp,32
 171 00e8 21204000 		move	$4,$2
 172 00ec 0000828F 		lw	$2,%call16(sigemptyset)($28)
 173 00f0 00000000 		nop
 174 00f4 21C84000 		move	$25,$2
 175 00f8 09F82003 		jalr	$25
 176 00fc 00000000 		nop
 177              	
 178 0100 1000DC8F 		lw	$28,16($fp)
  28:platform/PosixPlatform.c ****   saio.sa_flags = 0;
 179              		.loc 1 29 0
 180 0104 1800C0AF 		sw	$0,24($fp)
  29:platform/PosixPlatform.c ****   saio.sa_restorer = NULL;
 181              		.loc 1 30 0
 182 0108 A000C0AF 		sw	$0,160($fp)
  30:platform/PosixPlatform.c ****   sigaction(SIGIO,&saio,NULL);
 183              		.loc 1 31 0
 184 010c 1800C227 		addiu	$2,$fp,24
 185 0110 16000424 		li	$4,22			# 0x16
 186 0114 21284000 		move	$5,$2
 187 0118 21300000 		move	$6,$0
 188 011c 0000828F 		lw	$2,%call16(sigaction)($28)
 189 0120 00000000 		nop
 190 0124 21C84000 		move	$25,$2
 191 0128 09F82003 		jalr	$25
 192 012c 00000000 		nop
 193              	
 194 0130 1000DC8F 		lw	$28,16($fp)
  31:platform/PosixPlatform.c ****   atexit(StdioDestroy);
 195              		.loc 1 32 0
 196 0134 0000023C 		lui	$2,%hi(StdioDestroy)
 197 0138 00004224 		addiu	$2,$2,%lo(StdioDestroy)
 198 013c 21204000 		move	$4,$2
 199 0140 0000828F 		lw	$2,%call16(atexit)($28)
 200 0144 00000000 		nop
 201 0148 21C84000 		move	$25,$2
 202 014c 09F82003 		jalr	$25
 203 0150 00000000 		nop
 204              	
 205 0154 1000DC8F 		lw	$28,16($fp)
  32:platform/PosixPlatform.c **** 
  33:platform/PosixPlatform.c ****   /* Put terminal in immediate input mode */
  34:platform/PosixPlatform.c ****   if (tcgetattr(0, &orig_tios))
 206              		.loc 1 35 0
 207 0158 21200000 		move	$4,$0
 208 015c 0000858F 		lw	$5,%got(orig_tios)($28)
 209 0160 0000828F 		lw	$2,%call16(tcgetattr)($28)
 210 0164 00000000 		nop
 211 0168 21C84000 		move	$25,$2
 212 016c 09F82003 		jalr	$25
 213 0170 00000000 		nop
 214              	
 215 0174 1000DC8F 		lw	$28,16($fp)
 216 0178 12004010 		beq	$2,$0,$L6
 217 017c 00000000 		nop
 218              	
  35:platform/PosixPlatform.c ****     ERRORreturn("Error getting tios terminal settings");
 219              		.loc 1 36 0
 220 0180 0000828F 		lw	$2,%got(errorFile)($28)
 221 0184 0000033C 		lui	$3,%hi($LC1)
 222 0188 18006324 		addiu	$3,$3,%lo($LC1)
 223 018c 000043AC 		sw	$3,0($2)
 224 0190 0000828F 		lw	$2,%got(errorLine)($28)
 225 0194 24000324 		li	$3,36			# 0x24
 226 0198 000043AC 		sw	$3,0($2)
 227 019c 0000828F 		lw	$2,%got(errorFunc)($28)
 228 01a0 0000033C 		lui	$3,%hi(__func__.3398)
 229 01a4 18016324 		addiu	$3,$3,%lo(__func__.3398)
 230 01a8 000043AC 		sw	$3,0($2)
 231 01ac 0000828F 		lw	$2,%got(errorMsg)($28)
 232 01b0 0000033C 		lui	$3,%hi($LC2)
 233 01b4 34006324 		addiu	$3,$3,%lo($LC2)
 234 01b8 000043AC 		sw	$3,0($2)
 235 01bc 87000010 		b	$L11
 236 01c0 00000000 		nop
 237              	
 238              	$L6:
  36:platform/PosixPlatform.c **** 
  37:platform/PosixPlatform.c ****   /* copy that to tios and play with it */
  38:platform/PosixPlatform.c ****   tios = orig_tios;
 239              		.loc 1 39 0
 240 01c4 0000838F 		lw	$3,%got(tios)($28)
 241 01c8 0000828F 		lw	$2,%got(orig_tios)($28)
 242 01cc 21206000 		move	$4,$3
 243 01d0 21184000 		move	$3,$2
 244 01d4 34000224 		li	$2,52			# 0x34
 245 01d8 21286000 		move	$5,$3
 246 01dc 21304000 		move	$6,$2
 247 01e0 0000828F 		lw	$2,%call16(memcpy)($28)
 248 01e4 00000000 		nop
 249 01e8 21C84000 		move	$25,$2
 250 01ec 09F82003 		jalr	$25
 251 01f0 00000000 		nop
 252              	
 253 01f4 1000DC8F 		lw	$28,16($fp)
 254 01f8 00000000 		nop
  39:platform/PosixPlatform.c **** 
  40:platform/PosixPlatform.c ****   /* We want to disable the canonical mode */
  41:platform/PosixPlatform.c ****   tios.c_lflag &= ~ICANON;
 255              		.loc 1 42 0
 256 01fc 0000828F 		lw	$2,%got(tios)($28)
 257 0200 00000000 		nop
 258 0204 0C00438C 		lw	$3,12($2)
 259 0208 FDFF0224 		li	$2,-3			# 0xfffffffffffffffd
 260 020c 24186200 		and	$3,$3,$2
 261 0210 0000828F 		lw	$2,%got(tios)($28)
 262 0214 00000000 		nop
 263 0218 0C0043AC 		sw	$3,12($2)
  42:platform/PosixPlatform.c **** 
  43:platform/PosixPlatform.c ****   /* And make sure ECHO is disabled */
  44:platform/PosixPlatform.c ****   tios.c_lflag &= ~ECHO;
 264              		.loc 1 45 0
 265 021c 0000828F 		lw	$2,%got(tios)($28)
 266 0220 00000000 		nop
 267 0224 0C00438C 		lw	$3,12($2)
 268 0228 F7FF0224 		li	$2,-9			# 0xfffffffffffffff7
 269 022c 24186200 		and	$3,$3,$2
 270 0230 0000828F 		lw	$2,%got(tios)($28)
 271 0234 00000000 		nop
 272 0238 0C0043AC 		sw	$3,12($2)
  45:platform/PosixPlatform.c **** 
  46:platform/PosixPlatform.c ****   /* Apply our settings */
  47:platform/PosixPlatform.c ****   if (tcsetattr(0, TCSANOW, &tios))
 273              		.loc 1 48 0
 274 023c 21200000 		move	$4,$0
 275 0240 0E540524 		li	$5,21518			# 0x540e
 276 0244 0000868F 		lw	$6,%got(tios)($28)
 277 0248 0000828F 		lw	$2,%call16(tcsetattr)($28)
 278 024c 00000000 		nop
 279 0250 21C84000 		move	$25,$2
 280 0254 09F82003 		jalr	$25
 281 0258 00000000 		nop
 282              	
 283 025c 1000DC8F 		lw	$28,16($fp)
 284 0260 12004010 		beq	$2,$0,$L8
 285 0264 00000000 		nop
 286              	
  48:platform/PosixPlatform.c ****     ERRORreturn("Error applying terminal settings");
 287              		.loc 1 49 0
 288 0268 0000828F 		lw	$2,%got(errorFile)($28)
 289 026c 0000033C 		lui	$3,%hi($LC1)
 290 0270 18006324 		addiu	$3,$3,%lo($LC1)
 291 0274 000043AC 		sw	$3,0($2)
 292 0278 0000828F 		lw	$2,%got(errorLine)($28)
 293 027c 31000324 		li	$3,49			# 0x31
 294 0280 000043AC 		sw	$3,0($2)
 295 0284 0000828F 		lw	$2,%got(errorFunc)($28)
 296 0288 0000033C 		lui	$3,%hi(__func__.3398)
 297 028c 18016324 		addiu	$3,$3,%lo(__func__.3398)
 298 0290 000043AC 		sw	$3,0($2)
 299 0294 0000828F 		lw	$2,%got(errorMsg)($28)
 300 0298 0000033C 		lui	$3,%hi($LC3)
 301 029c 5C006324 		addiu	$3,$3,%lo($LC3)
 302 02a0 000043AC 		sw	$3,0($2)
 303 02a4 4D000010 		b	$L11
 304 02a8 00000000 		nop
 305              	
 306              	$L8:
  49:platform/PosixPlatform.c **** 
  50:platform/PosixPlatform.c ****   /* Check whether our settings were correctly applied */
  51:platform/PosixPlatform.c ****   if (tcgetattr(0, &tios)){
 307              		.loc 1 52 0
 308 02ac 21200000 		move	$4,$0
 309 02b0 0000858F 		lw	$5,%got(tios)($28)
 310 02b4 0000828F 		lw	$2,%call16(tcgetattr)($28)
 311 02b8 00000000 		nop
 312 02bc 21C84000 		move	$25,$2
 313 02c0 09F82003 		jalr	$25
 314 02c4 00000000 		nop
 315              	
 316 02c8 1000DC8F 		lw	$28,16($fp)
 317 02cc 1C004010 		beq	$2,$0,$L9
 318 02d0 00000000 		nop
 319              	
  52:platform/PosixPlatform.c ****     tcsetattr(0, TCSANOW, &orig_tios);
 320              		.loc 1 53 0
 321 02d4 21200000 		move	$4,$0
 322 02d8 0E540524 		li	$5,21518			# 0x540e
 323 02dc 0000868F 		lw	$6,%got(orig_tios)($28)
 324 02e0 0000828F 		lw	$2,%call16(tcsetattr)($28)
 325 02e4 00000000 		nop
 326 02e8 21C84000 		move	$25,$2
 327 02ec 09F82003 		jalr	$25
 328 02f0 00000000 		nop
 329              	
 330 02f4 1000DC8F 		lw	$28,16($fp)
 331 02f8 00000000 		nop
  53:platform/PosixPlatform.c ****     ERRORreturn("Error while asserting terminal settings");
 332              		.loc 1 54 0
 333 02fc 0000828F 		lw	$2,%got(errorFile)($28)
 334 0300 0000033C 		lui	$3,%hi($LC1)
 335 0304 18006324 		addiu	$3,$3,%lo($LC1)
 336 0308 000043AC 		sw	$3,0($2)
 337 030c 0000828F 		lw	$2,%got(errorLine)($28)
 338 0310 36000324 		li	$3,54			# 0x36
 339 0314 000043AC 		sw	$3,0($2)
 340 0318 0000828F 		lw	$2,%got(errorFunc)($28)
 341 031c 0000033C 		lui	$3,%hi(__func__.3398)
 342 0320 18016324 		addiu	$3,$3,%lo(__func__.3398)
 343 0324 000043AC 		sw	$3,0($2)
 344 0328 0000828F 		lw	$2,%got(errorMsg)($28)
 345 032c 0000033C 		lui	$3,%hi($LC4)
 346 0330 80006324 		addiu	$3,$3,%lo($LC4)
 347 0334 000043AC 		sw	$3,0($2)
 348 0338 28000010 		b	$L11
 349 033c 00000000 		nop
 350              	
 351              	$L9:
  54:platform/PosixPlatform.c ****   }
  55:platform/PosixPlatform.c **** 
  56:platform/PosixPlatform.c ****   if ((tios.c_lflag & ICANON) || (tios.c_lflag & ECHO)) {
 352              		.loc 1 57 0
 353 0340 0000828F 		lw	$2,%got(tios)($28)
 354 0344 00000000 		nop
 355 0348 0C00428C 		lw	$2,12($2)
 356 034c 00000000 		nop
 357 0350 02004230 		andi	$2,$2,0x2
 358 0354 08004014 		bne	$2,$0,$L10
 359 0358 00000000 		nop
 360              	
 361 035c 0000828F 		lw	$2,%got(tios)($28)
 362 0360 00000000 		nop
 363 0364 0C00428C 		lw	$2,12($2)
 364 0368 00000000 		nop
 365 036c 08004230 		andi	$2,$2,0x8
 366 0370 1A004010 		beq	$2,$0,$L11
 367 0374 00000000 		nop
 368              	
 369              	$L10:
  57:platform/PosixPlatform.c ****     tcsetattr(0, TCSANOW, &orig_tios);
 370              		.loc 1 58 0
 371 0378 21200000 		move	$4,$0
 372 037c 0E540524 		li	$5,21518			# 0x540e
 373 0380 0000868F 		lw	$6,%got(orig_tios)($28)
 374 0384 0000828F 		lw	$2,%call16(tcsetattr)($28)
 375 0388 00000000 		nop
 376 038c 21C84000 		move	$25,$2
 377 0390 09F82003 		jalr	$25
 378 0394 00000000 		nop
 379              	
 380 0398 1000DC8F 		lw	$28,16($fp)
 381 039c 00000000 		nop
  58:platform/PosixPlatform.c ****     ERRORreturn("Could not apply all terminal settings");
 382              		.loc 1 59 0
 383 03a0 0000828F 		lw	$2,%got(errorFile)($28)
 384 03a4 0000033C 		lui	$3,%hi($LC1)
 385 03a8 18006324 		addiu	$3,$3,%lo($LC1)
 386 03ac 000043AC 		sw	$3,0($2)
 387 03b0 0000828F 		lw	$2,%got(errorLine)($28)
 388 03b4 3B000324 		li	$3,59			# 0x3b
 389 03b8 000043AC 		sw	$3,0($2)
 390 03bc 0000828F 		lw	$2,%got(errorFunc)($28)
 391 03c0 0000033C 		lui	$3,%hi(__func__.3398)
 392 03c4 18016324 		addiu	$3,$3,%lo(__func__.3398)
 393 03c8 000043AC 		sw	$3,0($2)
 394 03cc 0000828F 		lw	$2,%got(errorMsg)($28)
 395 03d0 0000033C 		lui	$3,%hi($LC5)
 396 03d4 A8006324 		addiu	$3,$3,%lo($LC5)
 397 03d8 000043AC 		sw	$3,0($2)
 398              	$L11:
  59:platform/PosixPlatform.c ****   }
  60:platform/PosixPlatform.c **** }
 399              		.loc 1 61 0
 400 03dc 21E8C003 		move	$sp,$fp
 401 03e0 AC00BF8F 		lw	$31,172($sp)
 402 03e4 A800BE8F 		lw	$fp,168($sp)
 403 03e8 B000BD27 		addiu	$sp,$sp,176
 404 03ec 0800E003 		j	$31
 405 03f0 00000000 		nop
 406              	
 407              		.set	macro
 408              		.set	reorder
 409              		.end	StdioInit
 410              	$LFE2:
 412              		.align	2
 413              		.globl	StackCheck
 414              	$LFB3 = .
  61:platform/PosixPlatform.c **** 
  62:platform/PosixPlatform.c **** void StackCheck() {}
 415              		.loc 1 63 0
 416              		.set	nomips16
 417              		.ent	StackCheck
 419              	StackCheck:
 420              		.frame	$fp,8,$31		# vars= 0, regs= 1/0, args= 0, gp= 0
 421              		.mask	0x40000000,-4
 422              		.fmask	0x00000000,0
 423              		.set	noreorder
 424              		.set	nomacro
 425              		
 426 03f4 F8FFBD27 		addiu	$sp,$sp,-8
 427              	$LCFI11:
 428 03f8 0400BEAF 		sw	$fp,4($sp)
 429              	$LCFI12:
 430 03fc 21F0A003 		move	$fp,$sp
 431              	$LCFI13:
 432              		.loc 1 63 0
 433 0400 21E8C003 		move	$sp,$fp
 434 0404 0400BE8F 		lw	$fp,4($sp)
 435 0408 0800BD27 		addiu	$sp,$sp,8
 436 040c 0800E003 		j	$31
 437 0410 00000000 		nop
 438              	
 439              		.set	macro
 440              		.set	reorder
 441              		.end	StackCheck
 442              	$LFE3:
 444              		.align	2
 445              		.globl	StackPrintInfo
 446              	$LFB4 = .
  63:platform/PosixPlatform.c **** void StackPrintInfo(FILE *f) {}
 447              		.loc 1 64 0
 448              		.set	nomips16
 449              		.ent	StackPrintInfo
 451              	StackPrintInfo:
 452              		.frame	$fp,8,$31		# vars= 0, regs= 1/0, args= 0, gp= 0
 453              		.mask	0x40000000,-4
 454              		.fmask	0x00000000,0
 455              		.set	noreorder
 456              		.set	nomacro
 457              		
 458 0414 F8FFBD27 		addiu	$sp,$sp,-8
 459              	$LCFI14:
 460 0418 0400BEAF 		sw	$fp,4($sp)
 461              	$LCFI15:
 462 041c 21F0A003 		move	$fp,$sp
 463              	$LCFI16:
 464 0420 0800C4AF 		sw	$4,8($fp)
 465              		.loc 1 64 0
 466 0424 21E8C003 		move	$sp,$fp
 467 0428 0400BE8F 		lw	$fp,4($sp)
 468 042c 0800BD27 		addiu	$sp,$sp,8
 469 0430 0800E003 		j	$31
 470 0434 00000000 		nop
 471              	
 472              		.set	macro
 473              		.set	reorder
 474              		.end	StackPrintInfo
 475              	$LFE4:
 477              		.rdata
 478 00ce 0000     		.align	2
 479              	$LC6:
 480 00d0 3000     		.ascii	"0\000"
 481 00d2 0000     		.align	2
 482              	$LC7:
 483 00d4 4572726F 		.ascii	"Error during FileInit, no File I/O\012\000"
 483      72206475 
 483      72696E67 
 483      2046696C 
 483      65496E69 
 484              		.text
 485              		.align	2
 486              		.globl	PlatformInit
 487              	$LFB5 = .
  64:platform/PosixPlatform.c **** 
  65:platform/PosixPlatform.c **** void PlatformInit() { 
 488              		.loc 1 66 0
 489              		.set	nomips16
 490              		.ent	PlatformInit
 492              	PlatformInit:
 493              		.frame	$fp,32,$31		# vars= 0, regs= 2/0, args= 16, gp= 8
 494              		.mask	0xc0000000,-4
 495              		.fmask	0x00000000,0
 496              		.set	noreorder
 497              		.set	nomacro
 498              		
 499 0438 E0FFBD27 		addiu	$sp,$sp,-32
 500              	$LCFI17:
 501 043c 1C00BFAF 		sw	$31,28($sp)
 502              	$LCFI18:
 503 0440 1800BEAF 		sw	$fp,24($sp)
 504              	$LCFI19:
 505 0444 21F0A003 		move	$fp,$sp
 506              	$LCFI20:
 507 0448 00001C3C 		lui	$28,%hi(__gnu_local_gp)
 508 044c 00009C27 		addiu	$28,$28,%lo(__gnu_local_gp)
 509 0450 1000BCAF 		.cprestore	16
  66:platform/PosixPlatform.c ****   StdioInit();
 510              		.loc 1 67 0
 511              		.option	pic0
 512 0454 0000000C 		jal	StdioInit
 513 0458 00000000 		nop
 514              	
 515              		.option	pic2
 516 045c 1000DC8F 		lw	$28,16($fp)
 517 0460 00000000 		nop
  67:platform/PosixPlatform.c ****   ERRORassert();
 518              		.loc 1 68 0
 519 0464 0000828F 		lw	$2,%got(errorMsg)($28)
 520 0468 00000000 		nop
 521 046c 0000428C 		lw	$2,0($2)
 522 0470 00000000 		nop
 523 0474 18004010 		beq	$2,$0,$L17
 524 0478 00000000 		nop
 525              	
 526 047c 0000023C 		lui	$2,%hi(__func__.3429)
 527 0480 F8004424 		addiu	$4,$2,%lo(__func__.3429)
 528 0484 0000023C 		lui	$2,%hi($LC1)
 529 0488 18004524 		addiu	$5,$2,%lo($LC1)
 530 048c 44000624 		li	$6,68			# 0x44
 531 0490 0000828F 		lw	$2,%call16(ERRORprint2)($28)
 532 0494 00000000 		nop
 533 0498 21C84000 		move	$25,$2
 534 049c 09F82003 		jalr	$25
 535 04a0 00000000 		nop
 536              	
 537 04a4 1000DC8F 		lw	$28,16($fp)
 538 04a8 0000023C 		lui	$2,%hi($LC6)
 539 04ac D0004424 		addiu	$4,$2,%lo($LC6)
 540 04b0 0000023C 		lui	$2,%hi($LC1)
 541 04b4 18004524 		addiu	$5,$2,%lo($LC1)
 542 04b8 44000624 		li	$6,68			# 0x44
 543 04bc 0000023C 		lui	$2,%hi(__PRETTY_FUNCTION__.3430)
 544 04c0 08014724 		addiu	$7,$2,%lo(__PRETTY_FUNCTION__.3430)
 545 04c4 0000828F 		lw	$2,%call16(__assert_fail)($28)
 546 04c8 00000000 		nop
 547 04cc 21C84000 		move	$25,$2
 548 04d0 09F82003 		jalr	$25
 549 04d4 00000000 		nop
 550              	
 551              	$L17:
  68:platform/PosixPlatform.c ****   TimerInit();
 552              		.loc 1 69 0
 553              		.option	pic0
 554 04d8 0000000C 		jal	TimerInit
 555 04dc 00000000 		nop
 556              	
 557              		.option	pic2
 558 04e0 1000DC8F 		lw	$28,16($fp)
 559 04e4 00000000 		nop
  69:platform/PosixPlatform.c ****   ERRORassert();
 560              		.loc 1 70 0
 561 04e8 0000828F 		lw	$2,%got(errorMsg)($28)
 562 04ec 00000000 		nop
 563 04f0 0000428C 		lw	$2,0($2)
 564 04f4 00000000 		nop
 565 04f8 18004010 		beq	$2,$0,$L18
 566 04fc 00000000 		nop
 567              	
 568 0500 0000023C 		lui	$2,%hi(__func__.3429)
 569 0504 F8004424 		addiu	$4,$2,%lo(__func__.3429)
 570 0508 0000023C 		lui	$2,%hi($LC1)
 571 050c 18004524 		addiu	$5,$2,%lo($LC1)
 572 0510 46000624 		li	$6,70			# 0x46
 573 0514 0000828F 		lw	$2,%call16(ERRORprint2)($28)
 574 0518 00000000 		nop
 575 051c 21C84000 		move	$25,$2
 576 0520 09F82003 		jalr	$25
 577 0524 00000000 		nop
 578              	
 579 0528 1000DC8F 		lw	$28,16($fp)
 580 052c 0000023C 		lui	$2,%hi($LC6)
 581 0530 D0004424 		addiu	$4,$2,%lo($LC6)
 582 0534 0000023C 		lui	$2,%hi($LC1)
 583 0538 18004524 		addiu	$5,$2,%lo($LC1)
 584 053c 46000624 		li	$6,70			# 0x46
 585 0540 0000023C 		lui	$2,%hi(__PRETTY_FUNCTION__.3430)
 586 0544 08014724 		addiu	$7,$2,%lo(__PRETTY_FUNCTION__.3430)
 587 0548 0000828F 		lw	$2,%call16(__assert_fail)($28)
 588 054c 00000000 		nop
 589 0550 21C84000 		move	$25,$2
 590 0554 09F82003 		jalr	$25
 591 0558 00000000 		nop
 592              	
 593              	$L18:
  70:platform/PosixPlatform.c ****   FileInit();
 594              		.loc 1 71 0
 595 055c 0000828F 		lw	$2,%call16(FileInit)($28)
 596 0560 00000000 		nop
 597 0564 21C84000 		move	$25,$2
 598 0568 09F82003 		jalr	$25
 599 056c 00000000 		nop
 600              	
 601 0570 1000DC8F 		lw	$28,16($fp)
 602 0574 00000000 		nop
  71:platform/PosixPlatform.c ****   if (IsError) {
 603              		.loc 1 72 0
 604 0578 0000828F 		lw	$2,%got(errorMsg)($28)
 605 057c 00000000 		nop
 606 0580 0000428C 		lw	$2,0($2)
 607 0584 00000000 		nop
 608 0588 1B004010 		beq	$2,$0,$L20
 609 058c 00000000 		nop
 610              	
  72:platform/PosixPlatform.c ****     ERRORprint();
 611              		.loc 1 73 0
 612 0590 0000023C 		lui	$2,%hi(__func__.3429)
 613 0594 F8004424 		addiu	$4,$2,%lo(__func__.3429)
 614 0598 0000023C 		lui	$2,%hi($LC1)
 615 059c 18004524 		addiu	$5,$2,%lo($LC1)
 616 05a0 49000624 		li	$6,73			# 0x49
 617 05a4 0000828F 		lw	$2,%call16(ERRORprint2)($28)
 618 05a8 00000000 		nop
 619 05ac 21C84000 		move	$25,$2
 620 05b0 09F82003 		jalr	$25
 621 05b4 00000000 		nop
 622              	
 623 05b8 1000DC8F 		lw	$28,16($fp)
  73:platform/PosixPlatform.c ****     fprintf(stderr, "Error during FileInit, no File I/O\n");
 624              		.loc 1 74 0
 625 05bc 0000023C 		lui	$2,%hi($LC7)
 626 05c0 D4004324 		addiu	$3,$2,%lo($LC7)
 627 05c4 0000828F 		lw	$2,%got(stderr)($28)
 628 05c8 00000000 		nop
 629 05cc 0000428C 		lw	$2,0($2)
 630 05d0 21206000 		move	$4,$3
 631 05d4 01000524 		li	$5,1			# 0x1
 632 05d8 23000624 		li	$6,35			# 0x23
 633 05dc 21384000 		move	$7,$2
 634 05e0 0000828F 		lw	$2,%call16(fwrite)($28)
 635 05e4 00000000 		nop
 636 05e8 21C84000 		move	$25,$2
 637 05ec 09F82003 		jalr	$25
 638 05f0 00000000 		nop
 639              	
 640 05f4 1000DC8F 		lw	$28,16($fp)
 641              	$L20:
  74:platform/PosixPlatform.c ****   } 
  75:platform/PosixPlatform.c **** }
 642              		.loc 1 76 0
 643 05f8 21E8C003 		move	$sp,$fp
 644 05fc 1C00BF8F 		lw	$31,28($sp)
 645 0600 1800BE8F 		lw	$fp,24($sp)
 646 0604 2000BD27 		addiu	$sp,$sp,32
 647 0608 0800E003 		j	$31
 648 060c 00000000 		nop
 649              	
 650              		.set	macro
 651              		.set	reorder
 652              		.end	PlatformInit
 653              	$LFE5:
 655              		.align	2
 656              		.globl	OutC
 657              	$LFB6 = .
  76:platform/PosixPlatform.c **** 
  77:platform/PosixPlatform.c **** void OutC(char c) {
 658              		.loc 1 78 0
 659              		.set	nomips16
 660              		.ent	OutC
 662              	OutC:
 663              		.frame	$fp,32,$31		# vars= 0, regs= 2/0, args= 16, gp= 8
 664              		.mask	0xc0000000,-4
 665              		.fmask	0x00000000,0
 666              		.set	noreorder
 667              		.set	nomacro
 668              		
 669 0610 E0FFBD27 		addiu	$sp,$sp,-32
 670              	$LCFI21:
 671 0614 1C00BFAF 		sw	$31,28($sp)
 672              	$LCFI22:
 673 0618 1800BEAF 		sw	$fp,24($sp)
 674              	$LCFI23:
 675 061c 21F0A003 		move	$fp,$sp
 676              	$LCFI24:
 677 0620 00001C3C 		lui	$28,%hi(__gnu_local_gp)
 678 0624 00009C27 		addiu	$28,$28,%lo(__gnu_local_gp)
 679 0628 1000BCAF 		.cprestore	16
 680 062c 21108000 		move	$2,$4
 681 0630 2000C2A3 		sb	$2,32($fp)
  78:platform/PosixPlatform.c ****   fputc(c, stdout);
 682              		.loc 1 79 0
 683 0634 2000C383 		lb	$3,32($fp)
 684 0638 0000828F 		lw	$2,%got(stdout)($28)
 685 063c 00000000 		nop
 686 0640 0000428C 		lw	$2,0($2)
 687 0644 21206000 		move	$4,$3
 688 0648 21284000 		move	$5,$2
 689 064c 0000828F 		lw	$2,%call16(fputc)($28)
 690 0650 00000000 		nop
 691 0654 21C84000 		move	$25,$2
 692 0658 09F82003 		jalr	$25
 693 065c 00000000 		nop
 694              	
 695 0660 1000DC8F 		lw	$28,16($fp)
  79:platform/PosixPlatform.c **** }
 696              		.loc 1 80 0
 697 0664 21E8C003 		move	$sp,$fp
 698 0668 1C00BF8F 		lw	$31,28($sp)
 699 066c 1800BE8F 		lw	$fp,24($sp)
 700 0670 2000BD27 		addiu	$sp,$sp,32
 701 0674 0800E003 		j	$31
 702 0678 00000000 		nop
 703              	
 704              		.set	macro
 705              		.set	reorder
 706              		.end	OutC
 707              	$LFE6:
 709              	
 710              		.comm	startTime,8,8
 711              		.align	2
 712              		.globl	GetTimeOfDayMilli
 713              	$LFB7 = .
  80:platform/PosixPlatform.c **** 
  81:platform/PosixPlatform.c **** uint64_t startTime;
  82:platform/PosixPlatform.c **** 
  83:platform/PosixPlatform.c **** uint64_t GetTimeOfDayMilli() {
 714              		.loc 1 84 0
 715              		.set	nomips16
 716              		.ent	GetTimeOfDayMilli
 718              	GetTimeOfDayMilli:
 719              		.frame	$fp,48,$31		# vars= 8, regs= 4/0, args= 16, gp= 8
 720              		.mask	0xc0030000,-4
 721              		.fmask	0x00000000,0
 722              		.set	noreorder
 723              		.set	nomacro
 724              		
 725 067c D0FFBD27 		addiu	$sp,$sp,-48
 726              	$LCFI25:
 727 0680 2C00BFAF 		sw	$31,44($sp)
 728              	$LCFI26:
 729 0684 2800BEAF 		sw	$fp,40($sp)
 730              	$LCFI27:
 731 0688 2400B1AF 		sw	$17,36($sp)
 732              	$LCFI28:
 733 068c 2000B0AF 		sw	$16,32($sp)
 734              	$LCFI29:
 735 0690 21F0A003 		move	$fp,$sp
 736              	$LCFI30:
 737 0694 00001C3C 		lui	$28,%hi(__gnu_local_gp)
 738 0698 00009C27 		addiu	$28,$28,%lo(__gnu_local_gp)
 739 069c 1000BCAF 		.cprestore	16
  84:platform/PosixPlatform.c ****   struct timeval tv;
  85:platform/PosixPlatform.c ****   gettimeofday(&tv,0x0);
 740              		.loc 1 86 0
 741 06a0 1800C227 		addiu	$2,$fp,24
 742 06a4 21204000 		move	$4,$2
 743 06a8 21280000 		move	$5,$0
 744 06ac 0000828F 		lw	$2,%call16(gettimeofday)($28)
 745 06b0 00000000 		nop
 746 06b4 21C84000 		move	$25,$2
 747 06b8 09F82003 		jalr	$25
 748 06bc 00000000 		nop
 749              	
 750 06c0 1000DC8F 		lw	$28,16($fp)
  86:platform/PosixPlatform.c ****   return 1000LU*tv.tv_sec + tv.tv_usec/1000LU;
 751              		.loc 1 87 0
 752 06c4 1800C28F 		lw	$2,24($fp)
 753 06c8 00000000 		nop
 754 06cc 21184000 		move	$3,$2
 755 06d0 21106000 		move	$2,$3
 756 06d4 80200200 		sll	$4,$2,2
 757 06d8 40110400 		sll	$2,$4,5
 758 06dc 23104400 		subu	$2,$2,$4
 759 06e0 21104300 		addu	$2,$2,$3
 760 06e4 C0100200 		sll	$2,$2,3
 761 06e8 21184000 		move	$3,$2
 762 06ec 1C00C28F 		lw	$2,28($fp)
 763 06f0 00000000 		nop
 764 06f4 21204000 		move	$4,$2
 765 06f8 E8030224 		li	$2,1000			# 0x3e8
 766 06fc 02004014 		bne	$2,$0,1f
 767 0700 1B008200 		divu	$0,$4,$2
 768 0704 0D000700 		break	7
 769              	1:
 770 0708 10200000 		mfhi	$4
 771 070c 12100000 		mflo	$2
 772 0710 21106200 		addu	$2,$3,$2
 773 0714 21804000 		move	$16,$2
 774 0718 21880000 		move	$17,$0
 775 071c 21100002 		move	$2,$16
 776 0720 21182002 		move	$3,$17
  87:platform/PosixPlatform.c **** }
 777              		.loc 1 88 0
 778 0724 21E8C003 		move	$sp,$fp
 779 0728 2C00BF8F 		lw	$31,44($sp)
 780 072c 2800BE8F 		lw	$fp,40($sp)
 781 0730 2400B18F 		lw	$17,36($sp)
 782 0734 2000B08F 		lw	$16,32($sp)
 783 0738 3000BD27 		addiu	$sp,$sp,48
 784 073c 0800E003 		j	$31
 785 0740 00000000 		nop
 786              	
 787              		.set	macro
 788              		.set	reorder
 789              		.end	GetTimeOfDayMilli
 790              	$LFE7:
 792              		.align	2
 793              		.globl	TimerInit
 794              	$LFB8 = .
  88:platform/PosixPlatform.c **** 
  89:platform/PosixPlatform.c **** void TimerInit() {
 795              		.loc 1 90 0
 796              		.set	nomips16
 797              		.ent	TimerInit
 799              	TimerInit:
 800              		.frame	$fp,32,$31		# vars= 0, regs= 2/0, args= 16, gp= 8
 801              		.mask	0xc0000000,-4
 802              		.fmask	0x00000000,0
 803              		.set	noreorder
 804              		.set	nomacro
 805              		
 806 0744 E0FFBD27 		addiu	$sp,$sp,-32
 807              	$LCFI31:
 808 0748 1C00BFAF 		sw	$31,28($sp)
 809              	$LCFI32:
 810 074c 1800BEAF 		sw	$fp,24($sp)
 811              	$LCFI33:
 812 0750 21F0A003 		move	$fp,$sp
 813              	$LCFI34:
 814 0754 00001C3C 		lui	$28,%hi(__gnu_local_gp)
 815 0758 00009C27 		addiu	$28,$28,%lo(__gnu_local_gp)
 816 075c 1000BCAF 		.cprestore	16
  90:platform/PosixPlatform.c ****   startTime = GetTimeOfDayMilli();
 817              		.loc 1 91 0
 818              		.option	pic0
 819 0760 0000000C 		jal	GetTimeOfDayMilli
 820 0764 00000000 		nop
 821              	
 822              		.option	pic2
 823 0768 1000DC8F 		lw	$28,16($fp)
 824 076c 00000000 		nop
 825 0770 0000848F 		lw	$4,%got(startTime)($28)
 826 0774 00000000 		nop
 827 0778 000082AC 		sw	$2,0($4)
 828 077c 040083AC 		sw	$3,4($4)
  91:platform/PosixPlatform.c **** }
 829              		.loc 1 92 0
 830 0780 21E8C003 		move	$sp,$fp
 831 0784 1C00BF8F 		lw	$31,28($sp)
 832 0788 1800BE8F 		lw	$fp,24($sp)
 833 078c 2000BD27 		addiu	$sp,$sp,32
 834 0790 0800E003 		j	$31
 835 0794 00000000 		nop
 836              	
 837              		.set	macro
 838              		.set	reorder
 839              		.end	TimerInit
 840              	$LFE8:
 842              		.align	2
 843              		.globl	TimerMillisec
 844              	$LFB9 = .
  92:platform/PosixPlatform.c **** 
  93:platform/PosixPlatform.c **** /** Return value of millisecond timer **/
  94:platform/PosixPlatform.c **** uint32_t TimerMillisec() {
 845              		.loc 1 95 0
 846              		.set	nomips16
 847              		.ent	TimerMillisec
 849              	TimerMillisec:
 850              		.frame	$fp,32,$31		# vars= 0, regs= 2/0, args= 16, gp= 8
 851              		.mask	0xc0000000,-4
 852              		.fmask	0x00000000,0
 853              		.set	noreorder
 854              		.set	nomacro
 855              		
 856 0798 E0FFBD27 		addiu	$sp,$sp,-32
 857              	$LCFI35:
 858 079c 1C00BFAF 		sw	$31,28($sp)
 859              	$LCFI36:
 860 07a0 1800BEAF 		sw	$fp,24($sp)
 861              	$LCFI37:
 862 07a4 21F0A003 		move	$fp,$sp
 863              	$LCFI38:
 864 07a8 00001C3C 		lui	$28,%hi(__gnu_local_gp)
 865 07ac 00009C27 		addiu	$28,$28,%lo(__gnu_local_gp)
 866 07b0 1000BCAF 		.cprestore	16
  95:platform/PosixPlatform.c ****   return GetTimeOfDayMilli() - startTime;
 867              		.loc 1 96 0
 868              		.option	pic0
 869 07b4 0000000C 		jal	GetTimeOfDayMilli
 870 07b8 00000000 		nop
 871              	
 872              		.option	pic2
 873 07bc 1000DC8F 		lw	$28,16($fp)
 874 07c0 21204000 		move	$4,$2
 875 07c4 0000828F 		lw	$2,%got(startTime)($28)
 876 07c8 00000000 		nop
 877 07cc 0400438C 		lw	$3,4($2)
 878 07d0 0000428C 		lw	$2,0($2)
 879 07d4 00000000 		nop
 880 07d8 23108200 		subu	$2,$4,$2
  96:platform/PosixPlatform.c **** }
 881              		.loc 1 97 0
 882 07dc 21E8C003 		move	$sp,$fp
 883 07e0 1C00BF8F 		lw	$31,28($sp)
 884 07e4 1800BE8F 		lw	$fp,24($sp)
 885 07e8 2000BD27 		addiu	$sp,$sp,32
 886 07ec 0800E003 		j	$31
 887 07f0 00000000 		nop
 888              	
 889              		.set	macro
 890              		.set	reorder
 891              		.end	TimerMillisec
 892              	$LFE9:
 894              		.align	2
 895              		.globl	TimerCount
 896              	$LFB10 = .
  97:platform/PosixPlatform.c **** 
  98:platform/PosixPlatform.c **** uint64_t TimerCount() {
 897              		.loc 1 99 0
 898              		.set	nomips16
 899              		.ent	TimerCount
 901              	TimerCount:
 902              		.frame	$fp,40,$31		# vars= 0, regs= 4/0, args= 16, gp= 8
 903              		.mask	0xc0030000,-4
 904              		.fmask	0x00000000,0
 905              		.set	noreorder
 906              		.set	nomacro
 907              		
 908 07f4 D8FFBD27 		addiu	$sp,$sp,-40
 909              	$LCFI39:
 910 07f8 2400BFAF 		sw	$31,36($sp)
 911              	$LCFI40:
 912 07fc 2000BEAF 		sw	$fp,32($sp)
 913              	$LCFI41:
 914 0800 1C00B1AF 		sw	$17,28($sp)
 915              	$LCFI42:
 916 0804 1800B0AF 		sw	$16,24($sp)
 917              	$LCFI43:
 918 0808 21F0A003 		move	$fp,$sp
 919              	$LCFI44:
  99:platform/PosixPlatform.c ****   return TimerMillisec();
 920              		.loc 1 100 0
 921              		.option	pic0
 922 080c 0000000C 		jal	TimerMillisec
 923 0810 00000000 		nop
 924              	
 925              		.option	pic2
 926 0814 21804000 		move	$16,$2
 927 0818 21880000 		move	$17,$0
 928 081c 21100002 		move	$2,$16
 929 0820 21182002 		move	$3,$17
 100:platform/PosixPlatform.c **** }
 930              		.loc 1 101 0
 931 0824 21E8C003 		move	$sp,$fp
 932 0828 2400BF8F 		lw	$31,36($sp)
 933 082c 2000BE8F 		lw	$fp,32($sp)
 934 0830 1C00B18F 		lw	$17,28($sp)
 935 0834 1800B08F 		lw	$16,24($sp)
 936 0838 2800BD27 		addiu	$sp,$sp,40
 937 083c 0800E003 		j	$31
 938 0840 00000000 		nop
 939              	
 940              		.set	macro
 941              		.set	reorder
 942              		.end	TimerCount
 943              	$LFE10:
 945              		.align	2
 946              		.globl	TimerCountPerMillisec
 947              	$LFB11 = .
 101:platform/PosixPlatform.c **** 
 102:platform/PosixPlatform.c **** uint32_t TimerCountPerMillisec() {
 948              		.loc 1 103 0
 949              		.set	nomips16
 950              		.ent	TimerCountPerMillisec
 952              	TimerCountPerMillisec:
 953              		.frame	$fp,8,$31		# vars= 0, regs= 1/0, args= 0, gp= 0
 954              		.mask	0x40000000,-4
 955              		.fmask	0x00000000,0
 956              		.set	noreorder
 957              		.set	nomacro
 958              		
 959 0844 F8FFBD27 		addiu	$sp,$sp,-8
 960              	$LCFI45:
 961 0848 0400BEAF 		sw	$fp,4($sp)
 962              	$LCFI46:
 963 084c 21F0A003 		move	$fp,$sp
 964              	$LCFI47:
 103:platform/PosixPlatform.c ****   return 1;
 965              		.loc 1 104 0
 966 0850 01000224 		li	$2,1			# 0x1
 104:platform/PosixPlatform.c **** }
 967              		.loc 1 105 0
 968 0854 21E8C003 		move	$sp,$fp
 969 0858 0400BE8F 		lw	$fp,4($sp)
 970 085c 0800BD27 		addiu	$sp,$sp,8
 971 0860 0800E003 		j	$31
 972 0864 00000000 		nop
 973              	
 974              		.set	macro
 975              		.set	reorder
 976              		.end	TimerCountPerMillisec
 977              	$LFE11:
 979              		.align	2
 980              		.globl	DelayMs
 981              	$LFB12 = .
 105:platform/PosixPlatform.c **** 
 106:platform/PosixPlatform.c **** void DelayMs(unsigned int t) {
 982              		.loc 1 107 0
 983              		.set	nomips16
 984              		.ent	DelayMs
 986              	DelayMs:
 987              		.frame	$fp,32,$31		# vars= 0, regs= 2/0, args= 16, gp= 8
 988              		.mask	0xc0000000,-4
 989              		.fmask	0x00000000,0
 990              		.set	noreorder
 991              		.set	nomacro
 992              		
 993 0868 E0FFBD27 		addiu	$sp,$sp,-32
 994              	$LCFI48:
 995 086c 1C00BFAF 		sw	$31,28($sp)
 996              	$LCFI49:
 997 0870 1800BEAF 		sw	$fp,24($sp)
 998              	$LCFI50:
 999 0874 21F0A003 		move	$fp,$sp
 1000              	$LCFI51:
 1001 0878 00001C3C 		lui	$28,%hi(__gnu_local_gp)
 1002 087c 00009C27 		addiu	$28,$28,%lo(__gnu_local_gp)
 1003 0880 1000BCAF 		.cprestore	16
 1004 0884 2000C4AF 		sw	$4,32($fp)
 107:platform/PosixPlatform.c ****   usleep(1000*t);
 1005              		.loc 1 108 0
 1006 0888 2000C38F 		lw	$3,32($fp)
 1007 088c 00000000 		nop
 1008 0890 21106000 		move	$2,$3
 1009 0894 80200200 		sll	$4,$2,2
 1010 0898 40110400 		sll	$2,$4,5
 1011 089c 23104400 		subu	$2,$2,$4
 1012 08a0 21104300 		addu	$2,$2,$3
 1013 08a4 C0100200 		sll	$2,$2,3
 1014 08a8 21204000 		move	$4,$2
 1015 08ac 0000828F 		lw	$2,%call16(usleep)($28)
 1016 08b0 00000000 		nop
 1017 08b4 21C84000 		move	$25,$2
 1018 08b8 09F82003 		jalr	$25
 1019 08bc 00000000 		nop
 1020              	
 1021 08c0 1000DC8F 		lw	$28,16($fp)
 108:platform/PosixPlatform.c **** }
 1022              		.loc 1 109 0
 1023 08c4 21E8C003 		move	$sp,$fp
 1024 08c8 1C00BF8F 		lw	$31,28($sp)
 1025 08cc 1800BE8F 		lw	$fp,24($sp)
 1026 08d0 2000BD27 		addiu	$sp,$sp,32
 1027 08d4 0800E003 		j	$31
 1028 08d8 00000000 		nop
 1029              	
 1030              		.set	macro
 1031              		.set	reorder
 1032              		.end	DelayMs
 1033              	$LFE12:
 1035              		.align	2
 1036              		.globl	InputIsReady
 1037              	$LFB13 = .
 109:platform/PosixPlatform.c **** 
 110:platform/PosixPlatform.c **** char InputIsReady() {
 1038              		.loc 1 111 0
 1039              		.set	nomips16
 1040              		.ent	InputIsReady
 1042              	InputIsReady:
 1043              		.frame	$fp,200,$31		# vars= 152, regs= 4/0, args= 24, gp= 8
 1044              		.mask	0xc0030000,-4
 1045              		.fmask	0x00000000,0
 1046              		.set	noreorder
 1047              		.set	nomacro
 1048              		
 1049 08dc 38FFBD27 		addiu	$sp,$sp,-200
 1050              	$LCFI52:
 1051 08e0 C400BFAF 		sw	$31,196($sp)
 1052              	$LCFI53:
 1053 08e4 C000BEAF 		sw	$fp,192($sp)
 1054              	$LCFI54:
 1055 08e8 BC00B1AF 		sw	$17,188($sp)
 1056              	$LCFI55:
 1057 08ec B800B0AF 		sw	$16,184($sp)
 1058              	$LCFI56:
 1059 08f0 21F0A003 		move	$fp,$sp
 1060              	$LCFI57:
 1061 08f4 00001C3C 		lui	$28,%hi(__gnu_local_gp)
 1062 08f8 00009C27 		addiu	$28,$28,%lo(__gnu_local_gp)
 1063 08fc 1800BCAF 		.cprestore	24
 1064              	$LBB2 = .
 111:platform/PosixPlatform.c ****   fd_set rfds;
 112:platform/PosixPlatform.c ****   FD_ZERO(&rfds);
 1065              		.loc 1 113 0
 1066 0900 2C00C227 		addiu	$2,$fp,44
 1067 0904 2000C2AF 		sw	$2,32($fp)
 1068 0908 2400C0AF 		sw	$0,36($fp)
 1069 090c 0A000010 		b	$L36
 1070 0910 00000000 		nop
 1071              	
 1072              	$L37:
 1073 0914 2400C28F 		lw	$2,36($fp)
 1074 0918 2000C38F 		lw	$3,32($fp)
 1075 091c 80100200 		sll	$2,$2,2
 1076 0920 21106200 		addu	$2,$3,$2
 1077 0924 000040AC 		sw	$0,0($2)
 1078 0928 2400C28F 		lw	$2,36($fp)
 1079 092c 00000000 		nop
 1080 0930 01004224 		addiu	$2,$2,1
 1081 0934 2400C2AF 		sw	$2,36($fp)
 1082              	$L36:
 1083 0938 2400C28F 		lw	$2,36($fp)
 1084 093c 00000000 		nop
 1085 0940 2000422C 		sltu	$2,$2,32
 1086 0944 F3FF4014 		bne	$2,$0,$L37
 1087 0948 00000000 		nop
 1088              	
 1089              	$LBE2 = .
 113:platform/PosixPlatform.c ****   FD_SET(fileno(stdin), &rfds);
 1090              		.loc 1 114 0
 1091 094c 0000828F 		lw	$2,%got(stdin)($28)
 1092 0950 00000000 		nop
 1093 0954 0000428C 		lw	$2,0($2)
 1094 0958 00000000 		nop
 1095 095c 21204000 		move	$4,$2
 1096 0960 0000828F 		lw	$2,%call16(fileno)($28)
 1097 0964 00000000 		nop
 1098 0968 21C84000 		move	$25,$2
 1099 096c 09F82003 		jalr	$25
 1100 0970 00000000 		nop
 1101              	
 1102 0974 1800DC8F 		lw	$28,24($fp)
 1103 0978 42110200 		srl	$2,$2,5
 1104 097c 21804000 		move	$16,$2
 1105 0980 80100200 		sll	$2,$2,2
 1106 0984 2000C327 		addiu	$3,$fp,32
 1107 0988 21106200 		addu	$2,$3,$2
 1108 098c 0C00518C 		lw	$17,12($2)
 1109 0990 0000828F 		lw	$2,%got(stdin)($28)
 1110 0994 00000000 		nop
 1111 0998 0000428C 		lw	$2,0($2)
 1112 099c 00000000 		nop
 1113 09a0 21204000 		move	$4,$2
 1114 09a4 0000828F 		lw	$2,%call16(fileno)($28)
 1115 09a8 00000000 		nop
 1116 09ac 21C84000 		move	$25,$2
 1117 09b0 09F82003 		jalr	$25
 1118 09b4 00000000 		nop
 1119              	
 1120 09b8 1800DC8F 		lw	$28,24($fp)
 1121 09bc 1F004230 		andi	$2,$2,0x1f
 1122 09c0 01000324 		li	$3,1			# 0x1
 1123 09c4 04104300 		sll	$2,$3,$2
 1124 09c8 25182202 		or	$3,$17,$2
 1125 09cc 80101000 		sll	$2,$16,2
 1126 09d0 2000C427 		addiu	$4,$fp,32
 1127 09d4 21108200 		addu	$2,$4,$2
 1128 09d8 0C0043AC 		sw	$3,12($2)
 114:platform/PosixPlatform.c ****   struct timeval tv;
 115:platform/PosixPlatform.c ****   tv.tv_sec = 0;
 1129              		.loc 1 116 0
 1130 09dc AC00C0AF 		sw	$0,172($fp)
 116:platform/PosixPlatform.c ****   tv.tv_usec = 0;
 1131              		.loc 1 117 0
 1132 09e0 B000C0AF 		sw	$0,176($fp)
 117:platform/PosixPlatform.c ****   int ready = select(fileno(stdin) + 1, &rfds, 0x0, 0x0, &tv);
 1133              		.loc 1 118 0
 1134 09e4 0000828F 		lw	$2,%got(stdin)($28)
 1135 09e8 00000000 		nop
 1136 09ec 0000428C 		lw	$2,0($2)
 1137 09f0 00000000 		nop
 1138 09f4 21204000 		move	$4,$2
 1139 09f8 0000828F 		lw	$2,%call16(fileno)($28)
 1140 09fc 00000000 		nop
 1141 0a00 21C84000 		move	$25,$2
 1142 0a04 09F82003 		jalr	$25
 1143 0a08 00000000 		nop
 1144              	
 1145 0a0c 1800DC8F 		lw	$28,24($fp)
 1146 0a10 01004324 		addiu	$3,$2,1
 1147 0a14 2C00C227 		addiu	$2,$fp,44
 1148 0a18 AC00C427 		addiu	$4,$fp,172
 1149 0a1c 1000A4AF 		sw	$4,16($sp)
 1150 0a20 21206000 		move	$4,$3
 1151 0a24 21284000 		move	$5,$2
 1152 0a28 21300000 		move	$6,$0
 1153 0a2c 21380000 		move	$7,$0
 1154 0a30 0000828F 		lw	$2,%call16(select)($28)
 1155 0a34 00000000 		nop
 1156 0a38 21C84000 		move	$25,$2
 1157 0a3c 09F82003 		jalr	$25
 1158 0a40 00000000 		nop
 1159              	
 1160 0a44 1800DC8F 		lw	$28,24($fp)
 1161 0a48 2800C2AF 		sw	$2,40($fp)
 118:platform/PosixPlatform.c ****   return ready;
 1162              		.loc 1 119 0
 1163 0a4c 2800C28F 		lw	$2,40($fp)
 1164 0a50 00000000 		nop
 1165 0a54 00160200 		sll	$2,$2,24
 1166 0a58 03160200 		sra	$2,$2,24
 119:platform/PosixPlatform.c **** }
 1167              		.loc 1 120 0
 1168 0a5c 21E8C003 		move	$sp,$fp
 1169 0a60 C400BF8F 		lw	$31,196($sp)
 1170 0a64 C000BE8F 		lw	$fp,192($sp)
 1171 0a68 BC00B18F 		lw	$17,188($sp)
 1172 0a6c B800B08F 		lw	$16,184($sp)
 1173 0a70 C800BD27 		addiu	$sp,$sp,200
 1174 0a74 0800E003 		j	$31
 1175 0a78 00000000 		nop
 1176              	
 1177              		.set	macro
 1178              		.set	reorder
 1179              		.end	InputIsReady
 1180              	$LFE13:
 1182              		.align	2
 1183              		.globl	InputCheck
 1184              	$LFB14 = .
 120:platform/PosixPlatform.c **** 
 121:platform/PosixPlatform.c **** int InputCheck() {
 1185              		.loc 1 122 0
 1186              		.set	nomips16
 1187              		.ent	InputCheck
 1189              	InputCheck:
 1190              		.frame	$fp,40,$31		# vars= 8, regs= 2/0, args= 16, gp= 8
 1191              		.mask	0xc0000000,-4
 1192              		.fmask	0x00000000,0
 1193              		.set	noreorder
 1194              		.set	nomacro
 1195              		
 1196 0a7c D8FFBD27 		addiu	$sp,$sp,-40
 1197              	$LCFI58:
 1198 0a80 2400BFAF 		sw	$31,36($sp)
 1199              	$LCFI59:
 1200 0a84 2000BEAF 		sw	$fp,32($sp)
 1201              	$LCFI60:
 1202 0a88 21F0A003 		move	$fp,$sp
 1203              	$LCFI61:
 1204 0a8c 00001C3C 		lui	$28,%hi(__gnu_local_gp)
 1205 0a90 00009C27 		addiu	$28,$28,%lo(__gnu_local_gp)
 1206 0a94 1000BCAF 		.cprestore	16
 122:platform/PosixPlatform.c ****   int ready = InputIsReady();
 1207              		.loc 1 123 0
 1208              		.option	pic0
 1209 0a98 0000000C 		jal	InputIsReady
 1210 0a9c 00000000 		nop
 1211              	
 1212              		.option	pic2
 1213 0aa0 1000DC8F 		lw	$28,16($fp)
 1214 0aa4 1800C2AF 		sw	$2,24($fp)
 123:platform/PosixPlatform.c ****   if (ready) {
 1215              		.loc 1 124 0
 1216 0aa8 1800C28F 		lw	$2,24($fp)
 1217 0aac 00000000 		nop
 1218 0ab0 1A004010 		beq	$2,$0,$L40
 1219 0ab4 00000000 		nop
 1220              	
 1221              	$LBB3 = .
 124:platform/PosixPlatform.c ****     char c;
 125:platform/PosixPlatform.c ****     read(fileno(stdin),&c, 1); //not fread because of buffer
 1222              		.loc 1 126 0
 1223 0ab8 0000828F 		lw	$2,%got(stdin)($28)
 1224 0abc 00000000 		nop
 1225 0ac0 0000428C 		lw	$2,0($2)
 1226 0ac4 00000000 		nop
 1227 0ac8 21204000 		move	$4,$2
 1228 0acc 0000828F 		lw	$2,%call16(fileno)($28)
 1229 0ad0 00000000 		nop
 1230 0ad4 21C84000 		move	$25,$2
 1231 0ad8 09F82003 		jalr	$25
 1232 0adc 00000000 		nop
 1233              	
 1234 0ae0 1000DC8F 		lw	$28,16($fp)
 1235 0ae4 21184000 		move	$3,$2
 1236 0ae8 1C00C227 		addiu	$2,$fp,28
 1237 0aec 21206000 		move	$4,$3
 1238 0af0 21284000 		move	$5,$2
 1239 0af4 01000624 		li	$6,1			# 0x1
 1240 0af8 0000828F 		lw	$2,%call16(read)($28)
 1241 0afc 00000000 		nop
 1242 0b00 21C84000 		move	$25,$2
 1243 0b04 09F82003 		jalr	$25
 1244 0b08 00000000 		nop
 1245              	
 1246 0b0c 1000DC8F 		lw	$28,16($fp)
 126:platform/PosixPlatform.c ****     return c;
 1247              		.loc 1 127 0
 1248 0b10 1C00C283 		lb	$2,28($fp)
 1249 0b14 02000010 		b	$L41
 1250 0b18 00000000 		nop
 1251              	
 1252              	$L40:
 1253              	$LBE3 = .
 127:platform/PosixPlatform.c ****   } else {
 128:platform/PosixPlatform.c ****     return -1;
 1254              		.loc 1 129 0
 1255 0b1c FFFF0224 		li	$2,-1			# 0xffffffffffffffff
 1256              	$L41:
 129:platform/PosixPlatform.c ****   }
 130:platform/PosixPlatform.c **** }
 1257              		.loc 1 131 0
 1258 0b20 21E8C003 		move	$sp,$fp
 1259 0b24 2400BF8F 		lw	$31,36($sp)
 1260 0b28 2000BE8F 		lw	$fp,32($sp)
 1261 0b2c 2800BD27 		addiu	$sp,$sp,40
 1262 0b30 0800E003 		j	$31
 1263 0b34 00000000 		nop
 1264              	
 1265              		.set	macro
 1266              		.set	reorder
 1267              		.end	InputCheck
 1268              	$LFE14:
 1270              		.rdata
 1271              		.align	2
 1274              	__func__.3429:
 1275 00f8 506C6174 		.ascii	"PlatformInit\000"
 1275      666F726D 
 1275      496E6974 
 1275      00
 1276 0105 000000   		.align	2
 1279              	__PRETTY_FUNCTION__.3430:
 1280 0108 506C6174 		.ascii	"PlatformInit\000"
 1280      666F726D 
 1280      496E6974 
 1280      00
 1281 0115 000000   		.align	2
 1284              	__func__.3398:
 1285 0118 53746469 		.ascii	"StdioInit\000"
 1285      6F496E69 
 1285      7400
 1668              	$Letext0:
DEFINED SYMBOLS
                            *ABS*:0000000000000000 platform/PosixPlatform.c
     /tmp/ccTkTp5s.s:21     .text:0000000000000000 sounder
                            *COM*:0000000000000034 tios
                            *COM*:0000000000000034 orig_tios
     /tmp/ccTkTp5s.s:64     .text:0000000000000028 StdioDestroy
     /tmp/ccTkTp5s.s:147    .text:00000000000000bc StdioInit
     /tmp/ccTkTp5s.s:1284   .rodata:0000000000000118 __func__.3398
     /tmp/ccTkTp5s.s:419    .text:00000000000003f4 StackCheck
     /tmp/ccTkTp5s.s:451    .text:0000000000000414 StackPrintInfo
     /tmp/ccTkTp5s.s:492    .text:0000000000000438 PlatformInit
     /tmp/ccTkTp5s.s:1274   .rodata:00000000000000f8 __func__.3429
     /tmp/ccTkTp5s.s:1279   .rodata:0000000000000108 __PRETTY_FUNCTION__.3430
     /tmp/ccTkTp5s.s:799    .text:0000000000000744 TimerInit
     /tmp/ccTkTp5s.s:662    .text:0000000000000610 OutC
                            *COM*:0000000000000008 startTime
     /tmp/ccTkTp5s.s:718    .text:000000000000067c GetTimeOfDayMilli
     /tmp/ccTkTp5s.s:849    .text:0000000000000798 TimerMillisec
     /tmp/ccTkTp5s.s:901    .text:00000000000007f4 TimerCount
     /tmp/ccTkTp5s.s:952    .text:0000000000000844 TimerCountPerMillisec
     /tmp/ccTkTp5s.s:986    .text:0000000000000868 DelayMs
     /tmp/ccTkTp5s.s:1042   .text:00000000000008dc InputIsReady
     /tmp/ccTkTp5s.s:1189   .text:0000000000000a7c InputCheck

UNDEFINED SYMBOLS
__gnu_local_gp
stderr
fwrite
tcsetattr
sigemptyset
sigaction
atexit
tcgetattr
errorFile
errorLine
errorFunc
errorMsg
memcpy
ERRORprint2
__assert_fail
FileInit
stdout
fputc
gettimeofday
usleep
stdin
fileno
select
read
